Archive member included because of file (symbol)

c:/ti/ccsv6/tools/compiler/gcc_msp430_4.9.14r1_167/bin/../lib/gcc/msp430-elf/4.9.1/../../../../msp430-elf/lib/large\libc.a(lib_a-memset.o)
                              ./main.o (memset)
c:/ti/ccsv6/tools/compiler/gcc_msp430_4.9.14r1_167/bin/../lib/gcc/msp430-elf/4.9.1/../../../../msp430-elf/lib/large\libc.a(lib_a-sprintf.o)
                              ./main.o (sprintf)
c:/ti/ccsv6/tools/compiler/gcc_msp430_4.9.14r1_167/bin/../lib/gcc/msp430-elf/4.9.1/../../../../msp430-elf/lib/large\libc.a(lib_a-svfprintf.o)
                              c:/ti/ccsv6/tools/compiler/gcc_msp430_4.9.14r1_167/bin/../lib/gcc/msp430-elf/4.9.1/../../../../msp430-elf/lib/large\libc.a(lib_a-sprintf.o) (_svfprintf_r)
c:/ti/ccsv6/tools/compiler/gcc_msp430_4.9.14r1_167/bin/../lib/gcc/msp430-elf/4.9.1/../../../../msp430-elf/lib/large\libc.a(lib_a-dtoa.o)
                              c:/ti/ccsv6/tools/compiler/gcc_msp430_4.9.14r1_167/bin/../lib/gcc/msp430-elf/4.9.1/../../../../msp430-elf/lib/large\libc.a(lib_a-svfprintf.o) (_dtoa_r)
c:/ti/ccsv6/tools/compiler/gcc_msp430_4.9.14r1_167/bin/../lib/gcc/msp430-elf/4.9.1/../../../../msp430-elf/lib/large\libc.a(lib_a-impure.o)
                              c:/ti/ccsv6/tools/compiler/gcc_msp430_4.9.14r1_167/bin/../lib/gcc/msp430-elf/4.9.1/../../../../msp430-elf/lib/large\libc.a(lib_a-sprintf.o) (_impure_ptr)
c:/ti/ccsv6/tools/compiler/gcc_msp430_4.9.14r1_167/bin/../lib/gcc/msp430-elf/4.9.1/../../../../msp430-elf/lib/large\libc.a(lib_a-locale.o)
                              c:/ti/ccsv6/tools/compiler/gcc_msp430_4.9.14r1_167/bin/../lib/gcc/msp430-elf/4.9.1/../../../../msp430-elf/lib/large\libc.a(lib_a-svfprintf.o) (_localeconv_r)
c:/ti/ccsv6/tools/compiler/gcc_msp430_4.9.14r1_167/bin/../lib/gcc/msp430-elf/4.9.1/../../../../msp430-elf/lib/large\libc.a(lib_a-malloc.o)
                              c:/ti/ccsv6/tools/compiler/gcc_msp430_4.9.14r1_167/bin/../lib/gcc/msp430-elf/4.9.1/../../../../msp430-elf/lib/large\libc.a(lib_a-dtoa.o) (malloc)
c:/ti/ccsv6/tools/compiler/gcc_msp430_4.9.14r1_167/bin/../lib/gcc/msp430-elf/4.9.1/../../../../msp430-elf/lib/large\libc.a(lib_a-memchr.o)
                              c:/ti/ccsv6/tools/compiler/gcc_msp430_4.9.14r1_167/bin/../lib/gcc/msp430-elf/4.9.1/../../../../msp430-elf/lib/large\libc.a(lib_a-svfprintf.o) (memchr)
c:/ti/ccsv6/tools/compiler/gcc_msp430_4.9.14r1_167/bin/../lib/gcc/msp430-elf/4.9.1/../../../../msp430-elf/lib/large\libc.a(lib_a-memcpy.o)
                              c:/ti/ccsv6/tools/compiler/gcc_msp430_4.9.14r1_167/bin/../lib/gcc/msp430-elf/4.9.1/../../../../msp430-elf/lib/large\libc.a(lib_a-dtoa.o) (memcpy)
c:/ti/ccsv6/tools/compiler/gcc_msp430_4.9.14r1_167/bin/../lib/gcc/msp430-elf/4.9.1/../../../../msp430-elf/lib/large\libc.a(lib_a-mprec.o)
                              c:/ti/ccsv6/tools/compiler/gcc_msp430_4.9.14r1_167/bin/../lib/gcc/msp430-elf/4.9.1/../../../../msp430-elf/lib/large\libc.a(lib_a-dtoa.o) (_Balloc)
c:/ti/ccsv6/tools/compiler/gcc_msp430_4.9.14r1_167/bin/../lib/gcc/msp430-elf/4.9.1/../../../../msp430-elf/lib/large\libc.a(lib_a-nano-callocr.o)
                              c:/ti/ccsv6/tools/compiler/gcc_msp430_4.9.14r1_167/bin/../lib/gcc/msp430-elf/4.9.1/../../../../msp430-elf/lib/large\libc.a(lib_a-mprec.o) (_calloc_r)
c:/ti/ccsv6/tools/compiler/gcc_msp430_4.9.14r1_167/bin/../lib/gcc/msp430-elf/4.9.1/../../../../msp430-elf/lib/large\libc.a(lib_a-nano-freer.o)
                              c:/ti/ccsv6/tools/compiler/gcc_msp430_4.9.14r1_167/bin/../lib/gcc/msp430-elf/4.9.1/../../../../msp430-elf/lib/large\libc.a(lib_a-malloc.o) (_free_r)
c:/ti/ccsv6/tools/compiler/gcc_msp430_4.9.14r1_167/bin/../lib/gcc/msp430-elf/4.9.1/../../../../msp430-elf/lib/large\libc.a(lib_a-nano-mallocr.o)
                              c:/ti/ccsv6/tools/compiler/gcc_msp430_4.9.14r1_167/bin/../lib/gcc/msp430-elf/4.9.1/../../../../msp430-elf/lib/large\libc.a(lib_a-svfprintf.o) (_malloc_r)
c:/ti/ccsv6/tools/compiler/gcc_msp430_4.9.14r1_167/bin/../lib/gcc/msp430-elf/4.9.1/../../../../msp430-elf/lib/large\libc.a(lib_a-s_fpclassify.o)
                              c:/ti/ccsv6/tools/compiler/gcc_msp430_4.9.14r1_167/bin/../lib/gcc/msp430-elf/4.9.1/../../../../msp430-elf/lib/large\libc.a(lib_a-svfprintf.o) (__fpclassifyd)
c:/ti/ccsv6/tools/compiler/gcc_msp430_4.9.14r1_167/bin/../lib/gcc/msp430-elf/4.9.1/../../../../msp430-elf/lib/large\libc.a(lib_a-sbrkr.o)
                              c:/ti/ccsv6/tools/compiler/gcc_msp430_4.9.14r1_167/bin/../lib/gcc/msp430-elf/4.9.1/../../../../msp430-elf/lib/large\libc.a(lib_a-nano-mallocr.o) (_sbrk_r)
c:/ti/ccsv6/tools/compiler/gcc_msp430_4.9.14r1_167/bin/../lib/gcc/msp430-elf/4.9.1/../../../../msp430-elf/lib/large\libc.a(lib_a-strcmp.o)
                              c:/ti/ccsv6/tools/compiler/gcc_msp430_4.9.14r1_167/bin/../lib/gcc/msp430-elf/4.9.1/../../../../msp430-elf/lib/large\libc.a(lib_a-locale.o) (strcmp)
c:/ti/ccsv6/tools/compiler/gcc_msp430_4.9.14r1_167/bin/../lib/gcc/msp430-elf/4.9.1/../../../../msp430-elf/lib/large\libc.a(lib_a-strlen.o)
                              c:/ti/ccsv6/tools/compiler/gcc_msp430_4.9.14r1_167/bin/../lib/gcc/msp430-elf/4.9.1/../../../../msp430-elf/lib/large\libc.a(lib_a-svfprintf.o) (strlen)
c:/ti/ccsv6/tools/compiler/gcc_msp430_4.9.14r1_167/bin/../lib/gcc/msp430-elf/4.9.1/../../../../msp430-elf/lib/large\libc.a(lib_a-svfiprintf.o)
                              c:/ti/ccsv6/tools/compiler/gcc_msp430_4.9.14r1_167/bin/../lib/gcc/msp430-elf/4.9.1/../../../../msp430-elf/lib/large\libc.a(lib_a-svfprintf.o) (__ssprint_r)
c:/ti/ccsv6/tools/compiler/gcc_msp430_4.9.14r1_167/bin/../lib/gcc/msp430-elf/4.9.1/../../../../msp430-elf/lib/large\libc.a(lib_a-memmove.o)
                              c:/ti/ccsv6/tools/compiler/gcc_msp430_4.9.14r1_167/bin/../lib/gcc/msp430-elf/4.9.1/../../../../msp430-elf/lib/large\libc.a(lib_a-svfiprintf.o) (memmove)
c:/ti/ccsv6/tools/compiler/gcc_msp430_4.9.14r1_167/bin/../lib/gcc/msp430-elf/4.9.1/../../../../msp430-elf/lib/large\libc.a(lib_a-nano-reallocr.o)
                              c:/ti/ccsv6/tools/compiler/gcc_msp430_4.9.14r1_167/bin/../lib/gcc/msp430-elf/4.9.1/../../../../msp430-elf/lib/large\libc.a(lib_a-svfiprintf.o) (_realloc_r)
c:/ti/ccsv6/tools/compiler/gcc_msp430_4.9.14r1_167/bin/../lib/gcc/msp430-elf/4.9.1/../../../../msp430-elf/lib/large\libc.a(lib_a-reent.o)
                              c:/ti/ccsv6/tools/compiler/gcc_msp430_4.9.14r1_167/bin/../lib/gcc/msp430-elf/4.9.1/../../../../msp430-elf/lib/large\libc.a(lib_a-sbrkr.o) (errno)
c:/ti/ccsv6/tools/compiler/gcc_msp430_4.9.14r1_167/bin/../lib/gcc/msp430-elf/4.9.1/../../../../msp430-elf/lib/large\libc.a(lib_a-nano-msizer.o)
                              c:/ti/ccsv6/tools/compiler/gcc_msp430_4.9.14r1_167/bin/../lib/gcc/msp430-elf/4.9.1/../../../../msp430-elf/lib/large\libc.a(lib_a-nano-reallocr.o) (_malloc_usable_size_r)
c:/ti/ccsv6/tools/compiler/gcc_msp430_4.9.14r1_167/bin/../lib/gcc/msp430-elf/4.9.1/large\libgcc.a(_addsub_df.o)
                              c:/ti/ccsv6/tools/compiler/gcc_msp430_4.9.14r1_167/bin/../lib/gcc/msp430-elf/4.9.1/../../../../msp430-elf/lib/large\libc.a(lib_a-dtoa.o) (__mspabi_addd)
c:/ti/ccsv6/tools/compiler/gcc_msp430_4.9.14r1_167/bin/../lib/gcc/msp430-elf/4.9.1/large\libgcc.a(_mul_df.o)
                              c:/ti/ccsv6/tools/compiler/gcc_msp430_4.9.14r1_167/bin/../lib/gcc/msp430-elf/4.9.1/../../../../msp430-elf/lib/large\libc.a(lib_a-dtoa.o) (__mspabi_mpyd)
c:/ti/ccsv6/tools/compiler/gcc_msp430_4.9.14r1_167/bin/../lib/gcc/msp430-elf/4.9.1/large\libgcc.a(_div_df.o)
                              c:/ti/ccsv6/tools/compiler/gcc_msp430_4.9.14r1_167/bin/../lib/gcc/msp430-elf/4.9.1/../../../../msp430-elf/lib/large\libc.a(lib_a-dtoa.o) (__mspabi_divd)
c:/ti/ccsv6/tools/compiler/gcc_msp430_4.9.14r1_167/bin/../lib/gcc/msp430-elf/4.9.1/large\libgcc.a(_eq_df.o)
                              c:/ti/ccsv6/tools/compiler/gcc_msp430_4.9.14r1_167/bin/../lib/gcc/msp430-elf/4.9.1/../../../../msp430-elf/lib/large\libc.a(lib_a-svfprintf.o) (__eqdf2)
c:/ti/ccsv6/tools/compiler/gcc_msp430_4.9.14r1_167/bin/../lib/gcc/msp430-elf/4.9.1/large\libgcc.a(_ne_df.o)
                              c:/ti/ccsv6/tools/compiler/gcc_msp430_4.9.14r1_167/bin/../lib/gcc/msp430-elf/4.9.1/../../../../msp430-elf/lib/large\libc.a(lib_a-svfprintf.o) (__nedf2)
c:/ti/ccsv6/tools/compiler/gcc_msp430_4.9.14r1_167/bin/../lib/gcc/msp430-elf/4.9.1/large\libgcc.a(_gt_df.o)
                              c:/ti/ccsv6/tools/compiler/gcc_msp430_4.9.14r1_167/bin/../lib/gcc/msp430-elf/4.9.1/../../../../msp430-elf/lib/large\libc.a(lib_a-dtoa.o) (__gtdf2)
c:/ti/ccsv6/tools/compiler/gcc_msp430_4.9.14r1_167/bin/../lib/gcc/msp430-elf/4.9.1/large\libgcc.a(_ge_df.o)
                              c:/ti/ccsv6/tools/compiler/gcc_msp430_4.9.14r1_167/bin/../lib/gcc/msp430-elf/4.9.1/../../../../msp430-elf/lib/large\libc.a(lib_a-dtoa.o) (__gedf2)
c:/ti/ccsv6/tools/compiler/gcc_msp430_4.9.14r1_167/bin/../lib/gcc/msp430-elf/4.9.1/large\libgcc.a(_lt_df.o)
                              c:/ti/ccsv6/tools/compiler/gcc_msp430_4.9.14r1_167/bin/../lib/gcc/msp430-elf/4.9.1/../../../../msp430-elf/lib/large\libc.a(lib_a-svfprintf.o) (__ltdf2)
c:/ti/ccsv6/tools/compiler/gcc_msp430_4.9.14r1_167/bin/../lib/gcc/msp430-elf/4.9.1/large\libgcc.a(_si_to_df.o)
                              c:/ti/ccsv6/tools/compiler/gcc_msp430_4.9.14r1_167/bin/../lib/gcc/msp430-elf/4.9.1/../../../../msp430-elf/lib/large\libc.a(lib_a-dtoa.o) (__mspabi_fltlid)
c:/ti/ccsv6/tools/compiler/gcc_msp430_4.9.14r1_167/bin/../lib/gcc/msp430-elf/4.9.1/large\libgcc.a(_df_to_si.o)
                              c:/ti/ccsv6/tools/compiler/gcc_msp430_4.9.14r1_167/bin/../lib/gcc/msp430-elf/4.9.1/../../../../msp430-elf/lib/large\libc.a(lib_a-dtoa.o) (__mspabi_fixdli)
c:/ti/ccsv6/tools/compiler/gcc_msp430_4.9.14r1_167/bin/../lib/gcc/msp430-elf/4.9.1/large\libgcc.a(_thenan_df.o)
                              c:/ti/ccsv6/tools/compiler/gcc_msp430_4.9.14r1_167/bin/../lib/gcc/msp430-elf/4.9.1/large\libgcc.a(_addsub_df.o) (__thenan_df)
c:/ti/ccsv6/tools/compiler/gcc_msp430_4.9.14r1_167/bin/../lib/gcc/msp430-elf/4.9.1/large\libgcc.a(_usi_to_df.o)
                              c:/ti/ccsv6/tools/compiler/gcc_msp430_4.9.14r1_167/bin/../lib/gcc/msp430-elf/4.9.1/../../../../msp430-elf/lib/large\libc.a(lib_a-dtoa.o) (__mspabi_fltuld)
c:/ti/ccsv6/tools/compiler/gcc_msp430_4.9.14r1_167/bin/../lib/gcc/msp430-elf/4.9.1/large\libgcc.a(lib2divHI.o)
                              c:/ti/ccsv6/tools/compiler/gcc_msp430_4.9.14r1_167/bin/../lib/gcc/msp430-elf/4.9.1/../../../../msp430-elf/lib/large\libc.a(lib_a-svfprintf.o) (__mspabi_divi)
c:/ti/ccsv6/tools/compiler/gcc_msp430_4.9.14r1_167/bin/../lib/gcc/msp430-elf/4.9.1/large\libgcc.a(lib2divSI.o)
                              c:/ti/ccsv6/tools/compiler/gcc_msp430_4.9.14r1_167/bin/../lib/gcc/msp430-elf/4.9.1/../../../../msp430-elf/lib/large\libc.a(lib_a-svfprintf.o) (__mspabi_divlu)
c:/ti/ccsv6/tools/compiler/gcc_msp430_4.9.14r1_167/bin/../lib/gcc/msp430-elf/4.9.1/large\libgcc.a(slli.o)
                              c:/ti/ccsv6/tools/compiler/gcc_msp430_4.9.14r1_167/bin/../lib/gcc/msp430-elf/4.9.1/../../../../msp430-elf/lib/large\libc.a(lib_a-dtoa.o) (__mspabi_slli)
c:/ti/ccsv6/tools/compiler/gcc_msp430_4.9.14r1_167/bin/../lib/gcc/msp430-elf/4.9.1/large\libgcc.a(srai.o)
                              c:/ti/ccsv6/tools/compiler/gcc_msp430_4.9.14r1_167/bin/../lib/gcc/msp430-elf/4.9.1/../../../../msp430-elf/lib/large\libc.a(lib_a-dtoa.o) (__mspabi_sral)
c:/ti/ccsv6/tools/compiler/gcc_msp430_4.9.14r1_167/bin/../lib/gcc/msp430-elf/4.9.1/large\libgcc.a(srli.o)
                              c:/ti/ccsv6/tools/compiler/gcc_msp430_4.9.14r1_167/bin/../lib/gcc/msp430-elf/4.9.1/large/crtbegin.o (__mspabi_srli_15)
c:/ti/ccsv6/tools/compiler/gcc_msp430_4.9.14r1_167/bin/../lib/gcc/msp430-elf/4.9.1/large\libgcc.a(lib2hw_mul.o)
                              c:/ti/ccsv6/tools/compiler/gcc_msp430_4.9.14r1_167/bin/../lib/gcc/msp430-elf/4.9.1/../../../../msp430-elf/lib/large\libc.a(lib_a-dtoa.o) (__mulsi2)
c:/ti/ccsv6/tools/compiler/gcc_msp430_4.9.14r1_167/bin/../lib/gcc/msp430-elf/4.9.1/large\libgcc.a(_muldi3.o)
                              c:/ti/ccsv6/tools/compiler/gcc_msp430_4.9.14r1_167/bin/../lib/gcc/msp430-elf/4.9.1/large\libgcc.a(_mul_df.o) (__mspabi_mpyll)
c:/ti/ccsv6/tools/compiler/gcc_msp430_4.9.14r1_167/bin/../lib/gcc/msp430-elf/4.9.1/large\libgcc.a(_lshrdi3.o)
                              c:/ti/ccsv6/tools/compiler/gcc_msp430_4.9.14r1_167/bin/../lib/gcc/msp430-elf/4.9.1/large\libgcc.a(_addsub_df.o) (__lshrdi3)
c:/ti/ccsv6/tools/compiler/gcc_msp430_4.9.14r1_167/bin/../lib/gcc/msp430-elf/4.9.1/large\libgcc.a(_ashldi3.o)
                              c:/ti/ccsv6/tools/compiler/gcc_msp430_4.9.14r1_167/bin/../lib/gcc/msp430-elf/4.9.1/large\libgcc.a(_addsub_df.o) (__ashldi3)
c:/ti/ccsv6/tools/compiler/gcc_msp430_4.9.14r1_167/bin/../lib/gcc/msp430-elf/4.9.1/large\libgcc.a(_clzsi2.o)
                              c:/ti/ccsv6/tools/compiler/gcc_msp430_4.9.14r1_167/bin/../lib/gcc/msp430-elf/4.9.1/large\libgcc.a(_si_to_df.o) (__clzsi2)
c:/ti/ccsv6/tools/compiler/gcc_msp430_4.9.14r1_167/bin/../lib/gcc/msp430-elf/4.9.1/large\libgcc.a(_pack_df.o)
                              c:/ti/ccsv6/tools/compiler/gcc_msp430_4.9.14r1_167/bin/../lib/gcc/msp430-elf/4.9.1/large\libgcc.a(_addsub_df.o) (__pack_d)
c:/ti/ccsv6/tools/compiler/gcc_msp430_4.9.14r1_167/bin/../lib/gcc/msp430-elf/4.9.1/large\libgcc.a(_unpack_df.o)
                              c:/ti/ccsv6/tools/compiler/gcc_msp430_4.9.14r1_167/bin/../lib/gcc/msp430-elf/4.9.1/large\libgcc.a(_addsub_df.o) (__unpack_d)
c:/ti/ccsv6/tools/compiler/gcc_msp430_4.9.14r1_167/bin/../lib/gcc/msp430-elf/4.9.1/large\libgcc.a(_fpcmp_parts_df.o)
                              c:/ti/ccsv6/tools/compiler/gcc_msp430_4.9.14r1_167/bin/../lib/gcc/msp430-elf/4.9.1/large\libgcc.a(_eq_df.o) (__fpcmp_parts_d)
c:/ti/ccsv6/tools/compiler/gcc_msp430_4.9.14r1_167/bin/../lib/gcc/msp430-elf/4.9.1/large\libgcc.a(lib2mul.o)
                              c:/ti/ccsv6/tools/compiler/gcc_msp430_4.9.14r1_167/bin/../lib/gcc/msp430-elf/4.9.1/large\libgcc.a(_muldi3.o) (__mspabi_mpyl)
c:/ti/ccsv6/tools/compiler/gcc_msp430_4.9.14r1_167/bin/../lib/gcc/msp430-elf/4.9.1/large\libgcc.a(_clz.o)
                              c:/ti/ccsv6/tools/compiler/gcc_msp430_4.9.14r1_167/bin/../lib/gcc/msp430-elf/4.9.1/large\libgcc.a(_clzsi2.o) (__clz_tab)
c:/ti/ccsv6/tools/compiler/gcc_msp430_4.9.14r1_167/bin/../lib/gcc/msp430-elf/4.9.1/../../../../msp430-elf/lib/large\libcrt.a(crt_bss.o)
                              c:/ti/ccsv6/tools/compiler/gcc_msp430_4.9.14r1_167/bin/../lib/gcc/msp430-elf/4.9.1/large/crtbegin.o (__crt0_init_bss)
c:/ti/ccsv6/tools/compiler/gcc_msp430_4.9.14r1_167/bin/../lib/gcc/msp430-elf/4.9.1/../../../../msp430-elf/lib/large\libcrt.a(crt_movedata.o)
                              c:/ti/ccsv6/tools/compiler/gcc_msp430_4.9.14r1_167/bin/../lib/gcc/msp430-elf/4.9.1/large/crtbegin.o (__crt0_movedata)
c:/ti/ccsv6/tools/compiler/gcc_msp430_4.9.14r1_167/bin/../lib/gcc/msp430-elf/4.9.1/../../../../msp430-elf/lib/large\libcrt.a(crt_main.o)
                              c:/ti/ccsv6/tools/compiler/gcc_msp430_4.9.14r1_167/bin/../lib/gcc/msp430-elf/4.9.1/../../../../msp430-elf/lib/large/crt0.o (__crt0_call_init_then_main)
c:/ti/ccsv6/tools/compiler/gcc_msp430_4.9.14r1_167/bin/../lib/gcc/msp430-elf/4.9.1/../../../../msp430-elf/lib/large\libnosys.a(sbrk.o)
                              c:/ti/ccsv6/tools/compiler/gcc_msp430_4.9.14r1_167/bin/../lib/gcc/msp430-elf/4.9.1/../../../../msp430-elf/lib/large\libc.a(lib_a-sbrkr.o) (sbrk)
c:/ti/ccsv6/tools/compiler/gcc_msp430_4.9.14r1_167/bin/../lib/gcc/msp430-elf/4.9.1/../../../../msp430-elf/lib/large\libnosys.a(write.o)
                              c:/ti/ccsv6/tools/compiler/gcc_msp430_4.9.14r1_167/bin/../lib/gcc/msp430-elf/4.9.1/../../../../msp430-elf/lib/large\libnosys.a(sbrk.o) (write)
c:/ti/ccsv6/tools/compiler/gcc_msp430_4.9.14r1_167/bin/../lib/gcc/msp430-elf/4.9.1/../../../../msp430-elf/lib/large\libnosys.a(cio.o)
                              c:/ti/ccsv6/tools/compiler/gcc_msp430_4.9.14r1_167/bin/../lib/gcc/msp430-elf/4.9.1/../../../../msp430-elf/lib/large\libnosys.a(write.o) (__CIOBUF__)
c:/ti/ccsv6/tools/compiler/gcc_msp430_4.9.14r1_167/bin/../lib/gcc/msp430-elf/4.9.1/../../../../msp430-elf/lib/large\libc.a(lib_a-abort.o)
                              c:/ti/ccsv6/tools/compiler/gcc_msp430_4.9.14r1_167/bin/../lib/gcc/msp430-elf/4.9.1/../../../../msp430-elf/lib/large\libnosys.a(sbrk.o) (abort)
c:/ti/ccsv6/tools/compiler/gcc_msp430_4.9.14r1_167/bin/../lib/gcc/msp430-elf/4.9.1/../../../../msp430-elf/lib/large\libc.a(lib_a-signal.o)
                              c:/ti/ccsv6/tools/compiler/gcc_msp430_4.9.14r1_167/bin/../lib/gcc/msp430-elf/4.9.1/../../../../msp430-elf/lib/large\libc.a(lib_a-abort.o) (raise)
c:/ti/ccsv6/tools/compiler/gcc_msp430_4.9.14r1_167/bin/../lib/gcc/msp430-elf/4.9.1/../../../../msp430-elf/lib/large\libc.a(lib_a-signalr.o)
                              c:/ti/ccsv6/tools/compiler/gcc_msp430_4.9.14r1_167/bin/../lib/gcc/msp430-elf/4.9.1/../../../../msp430-elf/lib/large\libc.a(lib_a-signal.o) (_kill_r)
c:/ti/ccsv6/tools/compiler/gcc_msp430_4.9.14r1_167/bin/../lib/gcc/msp430-elf/4.9.1/../../../../msp430-elf/lib/large\libnosys.a(nosyscalls.o)
                              c:/ti/ccsv6/tools/compiler/gcc_msp430_4.9.14r1_167/bin/../lib/gcc/msp430-elf/4.9.1/../../../../msp430-elf/lib/large\libc.a(lib_a-abort.o) (_exit)
c:/ti/ccsv6/tools/compiler/gcc_msp430_4.9.14r1_167/bin/../lib/gcc/msp430-elf/4.9.1/../../../../msp430-elf/lib/large\libc.a(lib_a-errno.o)
                              c:/ti/ccsv6/tools/compiler/gcc_msp430_4.9.14r1_167/bin/../lib/gcc/msp430-elf/4.9.1/../../../../msp430-elf/lib/large\libnosys.a(nosyscalls.o) (__errno)

Allocating common symbols
Common symbol       size              file

errno               0x2               c:/ti/ccsv6/tools/compiler/gcc_msp430_4.9.14r1_167/bin/../lib/gcc/msp430-elf/4.9.1/../../../../msp430-elf/lib/large\libc.a(lib_a-reent.o)

Memory Configuration

Name             Origin             Length             Attributes
SFR              0x00000000         0x00000010
PERIPHERAL_8BIT  0x00000010         0x000000f0
PERIPHERAL_16BIT 0x00000100         0x00000100
RAM              0x00001c00         0x00004000
INFOMEM          0x00001800         0x00000200
INFOA            0x00001980         0x00000080
INFOB            0x00001900         0x00000080
INFOC            0x00001880         0x00000080
INFOD            0x00001800         0x00000080
ROM              0x00005c00         0x0000a380         xr
VECT1            0x0000ff80         0x00000002
VECT2            0x0000ff82         0x00000002
VECT3            0x0000ff84         0x00000002
VECT4            0x0000ff86         0x00000002
VECT5            0x0000ff88         0x00000002
VECT6            0x0000ff8a         0x00000002
VECT7            0x0000ff8c         0x00000002
VECT8            0x0000ff8e         0x00000002
VECT9            0x0000ff90         0x00000002
VECT10           0x0000ff92         0x00000002
VECT11           0x0000ff94         0x00000002
VECT12           0x0000ff96         0x00000002
VECT13           0x0000ff98         0x00000002
VECT14           0x0000ff9a         0x00000002
VECT15           0x0000ff9c         0x00000002
VECT16           0x0000ff9e         0x00000002
VECT17           0x0000ffa0         0x00000002
VECT18           0x0000ffa2         0x00000002
VECT19           0x0000ffa4         0x00000002
VECT20           0x0000ffa6         0x00000002
VECT21           0x0000ffa8         0x00000002
VECT22           0x0000ffaa         0x00000002
VECT23           0x0000ffac         0x00000002
VECT24           0x0000ffae         0x00000002
VECT25           0x0000ffb0         0x00000002
VECT26           0x0000ffb2         0x00000002
VECT27           0x0000ffb4         0x00000002
VECT28           0x0000ffb6         0x00000002
VECT29           0x0000ffb8         0x00000002
VECT30           0x0000ffba         0x00000002
VECT31           0x0000ffbc         0x00000002
VECT32           0x0000ffbe         0x00000002
VECT33           0x0000ffc0         0x00000002
VECT34           0x0000ffc2         0x00000002
VECT35           0x0000ffc4         0x00000002
VECT36           0x0000ffc6         0x00000002
VECT37           0x0000ffc8         0x00000002
VECT38           0x0000ffca         0x00000002
VECT39           0x0000ffcc         0x00000002
VECT40           0x0000ffce         0x00000002
VECT41           0x0000ffd0         0x00000002
VECT42           0x0000ffd2         0x00000002
VECT43           0x0000ffd4         0x00000002
VECT44           0x0000ffd6         0x00000002
VECT45           0x0000ffd8         0x00000002
VECT46           0x0000ffda         0x00000002
VECT47           0x0000ffdc         0x00000002
VECT48           0x0000ffde         0x00000002
VECT49           0x0000ffe0         0x00000002
VECT50           0x0000ffe2         0x00000002
VECT51           0x0000ffe4         0x00000002
VECT52           0x0000ffe6         0x00000002
VECT53           0x0000ffe8         0x00000002
VECT54           0x0000ffea         0x00000002
VECT55           0x0000ffec         0x00000002
VECT56           0x0000ffee         0x00000002
VECT57           0x0000fff0         0x00000002
VECT58           0x0000fff2         0x00000002
VECT59           0x0000fff4         0x00000002
VECT60           0x0000fff6         0x00000002
VECT61           0x0000fff8         0x00000002
VECT62           0x0000fffa         0x00000002
VECT63           0x0000fffc         0x00000002
RESETVEC         0x0000fffe         0x00000002
BSL              0x00001000         0x00000800
HIROM            0x00010000         0x00035bff         xr
*default*        0x00000000         0xffffffff

Linker script and memory map

LOAD c:/ti/ccsv6/tools/compiler/gcc_msp430_4.9.14r1_167/bin/../lib/gcc/msp430-elf/4.9.1/../../../../msp430-elf/lib/large/crt0.o
LOAD c:/ti/ccsv6/tools/compiler/gcc_msp430_4.9.14r1_167/bin/../lib/gcc/msp430-elf/4.9.1/large/crtbegin.o
LOAD ./main.o
START GROUP
LOAD c:/ti/ccsv6/tools/compiler/gcc_msp430_4.9.14r1_167/bin/../lib/gcc/msp430-elf/4.9.1/../../../../msp430-elf/lib/large\libc.a
LOAD c:/ti/ccsv6/tools/compiler/gcc_msp430_4.9.14r1_167/bin/../lib/gcc/msp430-elf/4.9.1/large\libgcc.a
END GROUP
LOAD c:/ti/ccsv6/tools/compiler/gcc_msp430_4.9.14r1_167/bin/../lib/gcc/msp430-elf/4.9.1/large\libgcc.a
START GROUP
LOAD c:/ti/ccsv6/tools/compiler/gcc_msp430_4.9.14r1_167/bin/../lib/gcc/msp430-elf/4.9.1/../../../../msp430-elf/lib/large\libc.a
LOAD c:/ti/ccsv6/tools/compiler/gcc_msp430_4.9.14r1_167/bin/../lib/gcc/msp430-elf/4.9.1/large\libgcc.a
LOAD c:/ti/ccsv6/tools/compiler/gcc_msp430_4.9.14r1_167/bin/../lib/gcc/msp430-elf/4.9.1/../../../../msp430-elf/lib/large\libcrt.a
LOAD c:/ti/ccsv6/tools/compiler/gcc_msp430_4.9.14r1_167/bin/../lib/gcc/msp430-elf/4.9.1/../../../../msp430-elf/lib/large\libnosys.a
END GROUP
LOAD c:/ti/ccsv6/tools/compiler/gcc_msp430_4.9.14r1_167/bin/../lib/gcc/msp430-elf/4.9.1/large\libgcc.a
LOAD c:/ti/ccsv6/tools/compiler/gcc_msp430_4.9.14r1_167/bin/../lib/gcc/msp430-elf/4.9.1/large/crtend.o
LOAD c:/ti/ccsv6/tools/compiler/gcc_msp430_4.9.14r1_167/bin/../lib/gcc/msp430-elf/4.9.1/../../../../msp430-elf/lib/large/crtn.o
LOAD c:/ti/ccsv6/tools/compiler/gcc_msp430_4.9.14r1_167/bin/../lib/gcc/msp430-elf/4.9.1/large\libgcc.a

__interrupt_vector_1
 *(__interrupt_vector_1)

__interrupt_vector_2
 *(__interrupt_vector_2)

__interrupt_vector_3
 *(__interrupt_vector_3)

__interrupt_vector_4
 *(__interrupt_vector_4)

__interrupt_vector_5
 *(__interrupt_vector_5)

__interrupt_vector_6
 *(__interrupt_vector_6)

__interrupt_vector_7
 *(__interrupt_vector_7)

__interrupt_vector_8
 *(__interrupt_vector_8)

__interrupt_vector_9
 *(__interrupt_vector_9)

__interrupt_vector_10
 *(__interrupt_vector_10)

__interrupt_vector_11
 *(__interrupt_vector_11)

__interrupt_vector_12
 *(__interrupt_vector_12)

__interrupt_vector_13
 *(__interrupt_vector_13)

__interrupt_vector_14
 *(__interrupt_vector_14)

__interrupt_vector_15
 *(__interrupt_vector_15)

__interrupt_vector_16
 *(__interrupt_vector_16)

__interrupt_vector_17
 *(__interrupt_vector_17)

__interrupt_vector_18
 *(__interrupt_vector_18)

__interrupt_vector_19
 *(__interrupt_vector_19)

__interrupt_vector_20
 *(__interrupt_vector_20)

__interrupt_vector_21
 *(__interrupt_vector_21)

__interrupt_vector_22
 *(__interrupt_vector_22)

__interrupt_vector_23
 *(__interrupt_vector_23)

__interrupt_vector_24
 *(__interrupt_vector_24)

__interrupt_vector_25
 *(__interrupt_vector_25)

__interrupt_vector_26
 *(__interrupt_vector_26)

__interrupt_vector_27
 *(__interrupt_vector_27)

__interrupt_vector_28
 *(__interrupt_vector_28)

__interrupt_vector_29
 *(__interrupt_vector_29)

__interrupt_vector_30
 *(__interrupt_vector_30)

__interrupt_vector_31
 *(__interrupt_vector_31)

__interrupt_vector_32
 *(__interrupt_vector_32)

__interrupt_vector_33
 *(__interrupt_vector_33)

__interrupt_vector_34
 *(__interrupt_vector_34)

__interrupt_vector_35
 *(__interrupt_vector_35)

__interrupt_vector_36
 *(__interrupt_vector_36)

__interrupt_vector_37
 *(__interrupt_vector_37)

__interrupt_vector_38
 *(__interrupt_vector_38)

__interrupt_vector_39
 *(__interrupt_vector_39)

__interrupt_vector_40
 *(__interrupt_vector_40)

__interrupt_vector_41
 *(__interrupt_vector_41)

__interrupt_vector_42
 *(__interrupt_vector_42)
 *(__interrupt_vector_rtc)

__interrupt_vector_43
 *(__interrupt_vector_43)
 *(__interrupt_vector_port2)

__interrupt_vector_44
 *(__interrupt_vector_44)
 *(__interrupt_vector_usci_b3)

__interrupt_vector_45
 *(__interrupt_vector_45)
 *(__interrupt_vector_usci_a3)

__interrupt_vector_46
 *(__interrupt_vector_46)
 *(__interrupt_vector_usci_b1)

__interrupt_vector_47
                0x0000ffdc        0x2
 *(__interrupt_vector_47)
 __interrupt_vector_47
                0x0000ffdc        0x2 ./main.o
 *(__interrupt_vector_usci_a1)

__interrupt_vector_48
 *(__interrupt_vector_48)
 *(__interrupt_vector_port1)

__interrupt_vector_49
 *(__interrupt_vector_49)
 *(__interrupt_vector_timer1_a1)

__interrupt_vector_50
 *(__interrupt_vector_50)
 *(__interrupt_vector_timer1_a0)

__interrupt_vector_51
 *(__interrupt_vector_51)
 *(__interrupt_vector_dma)

__interrupt_vector_52
 *(__interrupt_vector_52)
 *(__interrupt_vector_usci_b2)

__interrupt_vector_53
 *(__interrupt_vector_53)
 *(__interrupt_vector_usci_a2)

__interrupt_vector_54
 *(__interrupt_vector_54)
 *(__interrupt_vector_timer0_a1)

__interrupt_vector_55
 *(__interrupt_vector_55)
 *(__interrupt_vector_timer0_a0)

__interrupt_vector_56
 *(__interrupt_vector_56)
 *(__interrupt_vector_adc12)

__interrupt_vector_57
 *(__interrupt_vector_57)
 *(__interrupt_vector_usci_b0)

__interrupt_vector_58
 *(__interrupt_vector_58)
 *(__interrupt_vector_usci_a0)

__interrupt_vector_59
 *(__interrupt_vector_59)
 *(__interrupt_vector_wdt)

__interrupt_vector_60
 *(__interrupt_vector_60)
 *(__interrupt_vector_timer0_b1)

__interrupt_vector_61
 *(__interrupt_vector_61)
 *(__interrupt_vector_timer0_b0)

__interrupt_vector_62
 *(__interrupt_vector_62)
 *(__interrupt_vector_unmi)

__interrupt_vector_63
 *(__interrupt_vector_63)
 *(__interrupt_vector_sysnmi)

__reset_vector  0x0000fffe        0x2
 *(__interrupt_vector_64)
 *(__interrupt_vector_reset)
 *(.resetvec)
 .resetvec      0x0000fffe        0x2 c:/ti/ccsv6/tools/compiler/gcc_msp430_4.9.14r1_167/bin/../lib/gcc/msp430-elf/4.9.1/../../../../msp430-elf/lib/large/crt0.o

.rodata         0x00005c00      0x340
                0x00005c00                . = ALIGN (0x2)
 *(.plt)
                0x00005c00                . = ALIGN (0x2)
 *(.lower.rodata.* .lower.rodata)
                0x00005c00                . = ALIGN (0x2)
 *(.rodata .rodata.* .gnu.linkonce.r.* .const .const:*)
 .rodata        0x00005c00       0x2b ./main.o
 .rodata        0x00005c2b       0x34 c:/ti/ccsv6/tools/compiler/gcc_msp430_4.9.14r1_167/bin/../lib/gcc/msp430-elf/4.9.1/../../../../msp430-elf/lib/large\libc.a(lib_a-svfprintf.o)
 .rodata.zeroes.4043
                0x00005c5f       0x10 c:/ti/ccsv6/tools/compiler/gcc_msp430_4.9.14r1_167/bin/../lib/gcc/msp430-elf/4.9.1/../../../../msp430-elf/lib/large\libc.a(lib_a-svfprintf.o)
 .rodata.blanks.4042
                0x00005c6f       0x10 c:/ti/ccsv6/tools/compiler/gcc_msp430_4.9.14r1_167/bin/../lib/gcc/msp430-elf/4.9.1/../../../../msp430-elf/lib/large\libc.a(lib_a-svfprintf.o)
 .rodata        0x00005c7f        0xf c:/ti/ccsv6/tools/compiler/gcc_msp430_4.9.14r1_167/bin/../lib/gcc/msp430-elf/4.9.1/../../../../msp430-elf/lib/large\libc.a(lib_a-dtoa.o)
 .rodata._global_impure_ptr
                0x00005c8e        0x4 c:/ti/ccsv6/tools/compiler/gcc_msp430_4.9.14r1_167/bin/../lib/gcc/msp430-elf/4.9.1/../../../../msp430-elf/lib/large\libc.a(lib_a-impure.o)
                0x00005c8e                _global_impure_ptr
 .rodata        0x00005c92        0x2 c:/ti/ccsv6/tools/compiler/gcc_msp430_4.9.14r1_167/bin/../lib/gcc/msp430-elf/4.9.1/../../../../msp430-elf/lib/large\libc.a(lib_a-impure.o)
 .rodata        0x00005c94        0xb c:/ti/ccsv6/tools/compiler/gcc_msp430_4.9.14r1_167/bin/../lib/gcc/msp430-elf/4.9.1/../../../../msp430-elf/lib/large\libc.a(lib_a-locale.o)
 *fill*         0x00005c9f        0x1 
 .rodata.p05.2560
                0x00005ca0        0x6 c:/ti/ccsv6/tools/compiler/gcc_msp430_4.9.14r1_167/bin/../lib/gcc/msp430-elf/4.9.1/../../../../msp430-elf/lib/large\libc.a(lib_a-mprec.o)
 .rodata.__mprec_tinytens
                0x00005ca6       0x28 c:/ti/ccsv6/tools/compiler/gcc_msp430_4.9.14r1_167/bin/../lib/gcc/msp430-elf/4.9.1/../../../../msp430-elf/lib/large\libc.a(lib_a-mprec.o)
                0x00005ca6                __mprec_tinytens
 .rodata.__mprec_bigtens
                0x00005cce       0x28 c:/ti/ccsv6/tools/compiler/gcc_msp430_4.9.14r1_167/bin/../lib/gcc/msp430-elf/4.9.1/../../../../msp430-elf/lib/large\libc.a(lib_a-mprec.o)
                0x00005cce                __mprec_bigtens
 .rodata.__mprec_tens
                0x00005cf6       0xc8 c:/ti/ccsv6/tools/compiler/gcc_msp430_4.9.14r1_167/bin/../lib/gcc/msp430-elf/4.9.1/../../../../msp430-elf/lib/large\libc.a(lib_a-mprec.o)
                0x00005cf6                __mprec_tens
 .rodata        0x00005dbe       0x22 c:/ti/ccsv6/tools/compiler/gcc_msp430_4.9.14r1_167/bin/../lib/gcc/msp430-elf/4.9.1/../../../../msp430-elf/lib/large\libc.a(lib_a-svfiprintf.o)
 .rodata.zeroes.3987
                0x00005de0       0x10 c:/ti/ccsv6/tools/compiler/gcc_msp430_4.9.14r1_167/bin/../lib/gcc/msp430-elf/4.9.1/../../../../msp430-elf/lib/large\libc.a(lib_a-svfiprintf.o)
 .rodata.blanks.3986
                0x00005df0       0x10 c:/ti/ccsv6/tools/compiler/gcc_msp430_4.9.14r1_167/bin/../lib/gcc/msp430-elf/4.9.1/../../../../msp430-elf/lib/large\libc.a(lib_a-svfiprintf.o)
 .rodata.__thenan_df
                0x00005e00        0xe c:/ti/ccsv6/tools/compiler/gcc_msp430_4.9.14r1_167/bin/../lib/gcc/msp430-elf/4.9.1/large\libgcc.a(_thenan_df.o)
                0x00005e00                __thenan_df
 .rodata.__clz_tab
                0x00005e0e      0x100 c:/ti/ccsv6/tools/compiler/gcc_msp430_4.9.14r1_167/bin/../lib/gcc/msp430-elf/4.9.1/large\libgcc.a(_clz.o)
                0x00005e0e                __clz_tab
 .rodata        0x00005f0e       0x1a c:/ti/ccsv6/tools/compiler/gcc_msp430_4.9.14r1_167/bin/../lib/gcc/msp430-elf/4.9.1/../../../../msp430-elf/lib/large\libnosys.a(sbrk.o)
 *(.rodata1)
 *(.eh_frame_hdr)
 *(.eh_frame)
 .eh_frame      0x00005f28        0x0 c:/ti/ccsv6/tools/compiler/gcc_msp430_4.9.14r1_167/bin/../lib/gcc/msp430-elf/4.9.1/large/crtbegin.o
 .eh_frame      0x00005f28        0x4 c:/ti/ccsv6/tools/compiler/gcc_msp430_4.9.14r1_167/bin/../lib/gcc/msp430-elf/4.9.1/large/crtend.o
 *(.gcc_except_table)
 *(.gcc_except_table.*)
                0x00005f2c                PROVIDE (__preinit_array_start, .)
 *(.preinit_array)
                0x00005f2c                PROVIDE (__preinit_array_end, .)
                0x00005f2c                PROVIDE (__init_array_start, .)
 *(SORT(.init_array.*))
 *(.init_array)
                0x00005f2c                PROVIDE (__init_array_end, .)
                0x00005f2c                PROVIDE (__fini_array_start, .)
 *(.fini_array)
 *(SORT(.fini_array.*))
                0x00005f2c                PROVIDE (__fini_array_end, .)
                0x00005f2c        0x4 LONG 0x0
 *crtbegin*.o(.ctors)
 .ctors         0x00005f30        0x4 c:/ti/ccsv6/tools/compiler/gcc_msp430_4.9.14r1_167/bin/../lib/gcc/msp430-elf/4.9.1/large/crtbegin.o
 *(EXCLUDE_FILE(*crtend*.o) .ctors)
 *(SORT(.ctors.*))
 *(.ctors)
 .ctors         0x00005f34        0x4 c:/ti/ccsv6/tools/compiler/gcc_msp430_4.9.14r1_167/bin/../lib/gcc/msp430-elf/4.9.1/large/crtend.o
 *crtbegin*.o(.dtors)
 .dtors         0x00005f38        0x4 c:/ti/ccsv6/tools/compiler/gcc_msp430_4.9.14r1_167/bin/../lib/gcc/msp430-elf/4.9.1/large/crtbegin.o
 *(EXCLUDE_FILE(*crtend*.o) .dtors)
 *(SORT(.dtors.*))
 *(.dtors)
 .dtors         0x00005f3c        0x4 c:/ti/ccsv6/tools/compiler/gcc_msp430_4.9.14r1_167/bin/../lib/gcc/msp430-elf/4.9.1/large/crtend.o
                0x00005f3c                __DTOR_END__

.upper.rodata
 *(.upper.rodata.* .upper.rodata)

.data           0x00001c00      0x1b4 load address 0x00005f40
                0x00001c00                . = ALIGN (0x2)
                0x00001c00                PROVIDE (__datastart, .)
 *(.lower.data.* .lower.data)
                0x00001c00                . = ALIGN (0x2)
 *(.either.data.* .either.data)
                0x00001c00                . = ALIGN (0x2)
 *(.jcr)
 .jcr           0x00001c00        0x0 c:/ti/ccsv6/tools/compiler/gcc_msp430_4.9.14r1_167/bin/../lib/gcc/msp430-elf/4.9.1/large/crtbegin.o
 .jcr           0x00001c00        0x4 c:/ti/ccsv6/tools/compiler/gcc_msp430_4.9.14r1_167/bin/../lib/gcc/msp430-elf/4.9.1/large/crtend.o
 *(.data.rel.ro.local)
 *(.data.rel.ro*)
 *(.dynamic)
                0x00001c04                . = ALIGN (0x2)
 *(.data .data.* .gnu.linkonce.d.*)
 .data          0x00001c04        0x0 c:/ti/ccsv6/tools/compiler/gcc_msp430_4.9.14r1_167/bin/../lib/gcc/msp430-elf/4.9.1/../../../../msp430-elf/lib/large/crt0.o
 .data          0x00001c04        0x4 c:/ti/ccsv6/tools/compiler/gcc_msp430_4.9.14r1_167/bin/../lib/gcc/msp430-elf/4.9.1/large/crtbegin.o
                0x00001c04                __dso_handle
 .data          0x00001c08        0x0 ./main.o
 .data          0x00001c08        0x0 c:/ti/ccsv6/tools/compiler/gcc_msp430_4.9.14r1_167/bin/../lib/gcc/msp430-elf/4.9.1/../../../../msp430-elf/lib/large\libc.a(lib_a-memset.o)
 .data          0x00001c08        0x0 c:/ti/ccsv6/tools/compiler/gcc_msp430_4.9.14r1_167/bin/../lib/gcc/msp430-elf/4.9.1/../../../../msp430-elf/lib/large\libc.a(lib_a-sprintf.o)
 .data          0x00001c08        0x0 c:/ti/ccsv6/tools/compiler/gcc_msp430_4.9.14r1_167/bin/../lib/gcc/msp430-elf/4.9.1/../../../../msp430-elf/lib/large\libc.a(lib_a-svfprintf.o)
 .data          0x00001c08        0x0 c:/ti/ccsv6/tools/compiler/gcc_msp430_4.9.14r1_167/bin/../lib/gcc/msp430-elf/4.9.1/../../../../msp430-elf/lib/large\libc.a(lib_a-dtoa.o)
 .data          0x00001c08        0x0 c:/ti/ccsv6/tools/compiler/gcc_msp430_4.9.14r1_167/bin/../lib/gcc/msp430-elf/4.9.1/../../../../msp430-elf/lib/large\libc.a(lib_a-impure.o)
 .data._impure_ptr
                0x00001c08        0x4 c:/ti/ccsv6/tools/compiler/gcc_msp430_4.9.14r1_167/bin/../lib/gcc/msp430-elf/4.9.1/../../../../msp430-elf/lib/large\libc.a(lib_a-impure.o)
                0x00001c08                _impure_ptr
 .data.impure_data
                0x00001c0c       0xe0 c:/ti/ccsv6/tools/compiler/gcc_msp430_4.9.14r1_167/bin/../lib/gcc/msp430-elf/4.9.1/../../../../msp430-elf/lib/large\libc.a(lib_a-impure.o)
 .data          0x00001cec        0x0 c:/ti/ccsv6/tools/compiler/gcc_msp430_4.9.14r1_167/bin/../lib/gcc/msp430-elf/4.9.1/../../../../msp430-elf/lib/large\libc.a(lib_a-locale.o)
 .data.lc_message_charset
                0x00001cec       0x20 c:/ti/ccsv6/tools/compiler/gcc_msp430_4.9.14r1_167/bin/../lib/gcc/msp430-elf/4.9.1/../../../../msp430-elf/lib/large\libc.a(lib_a-locale.o)
 .data.lc_ctype_charset
                0x00001d0c       0x20 c:/ti/ccsv6/tools/compiler/gcc_msp430_4.9.14r1_167/bin/../lib/gcc/msp430-elf/4.9.1/../../../../msp430-elf/lib/large\libc.a(lib_a-locale.o)
 .data.lconv    0x00001d2c       0x36 c:/ti/ccsv6/tools/compiler/gcc_msp430_4.9.14r1_167/bin/../lib/gcc/msp430-elf/4.9.1/../../../../msp430-elf/lib/large\libc.a(lib_a-locale.o)
 .data.__mb_cur_max
                0x00001d62        0x2 c:/ti/ccsv6/tools/compiler/gcc_msp430_4.9.14r1_167/bin/../lib/gcc/msp430-elf/4.9.1/../../../../msp430-elf/lib/large\libc.a(lib_a-locale.o)
                0x00001d62                __mb_cur_max
 .data          0x00001d64        0x0 c:/ti/ccsv6/tools/compiler/gcc_msp430_4.9.14r1_167/bin/../lib/gcc/msp430-elf/4.9.1/../../../../msp430-elf/lib/large\libc.a(lib_a-malloc.o)
 .data          0x00001d64        0x0 c:/ti/ccsv6/tools/compiler/gcc_msp430_4.9.14r1_167/bin/../lib/gcc/msp430-elf/4.9.1/../../../../msp430-elf/lib/large\libc.a(lib_a-memchr.o)
 .data          0x00001d64        0x0 c:/ti/ccsv6/tools/compiler/gcc_msp430_4.9.14r1_167/bin/../lib/gcc/msp430-elf/4.9.1/../../../../msp430-elf/lib/large\libc.a(lib_a-memcpy.o)
 .data          0x00001d64        0x0 c:/ti/ccsv6/tools/compiler/gcc_msp430_4.9.14r1_167/bin/../lib/gcc/msp430-elf/4.9.1/../../../../msp430-elf/lib/large\libc.a(lib_a-mprec.o)
 .data          0x00001d64        0x0 c:/ti/ccsv6/tools/compiler/gcc_msp430_4.9.14r1_167/bin/../lib/gcc/msp430-elf/4.9.1/../../../../msp430-elf/lib/large\libc.a(lib_a-nano-callocr.o)
 .data          0x00001d64        0x0 c:/ti/ccsv6/tools/compiler/gcc_msp430_4.9.14r1_167/bin/../lib/gcc/msp430-elf/4.9.1/../../../../msp430-elf/lib/large\libc.a(lib_a-nano-freer.o)
 .data          0x00001d64        0x0 c:/ti/ccsv6/tools/compiler/gcc_msp430_4.9.14r1_167/bin/../lib/gcc/msp430-elf/4.9.1/../../../../msp430-elf/lib/large\libc.a(lib_a-nano-mallocr.o)
 .data          0x00001d64        0x0 c:/ti/ccsv6/tools/compiler/gcc_msp430_4.9.14r1_167/bin/../lib/gcc/msp430-elf/4.9.1/../../../../msp430-elf/lib/large\libc.a(lib_a-s_fpclassify.o)
 .data          0x00001d64        0x0 c:/ti/ccsv6/tools/compiler/gcc_msp430_4.9.14r1_167/bin/../lib/gcc/msp430-elf/4.9.1/../../../../msp430-elf/lib/large\libc.a(lib_a-sbrkr.o)
 .data          0x00001d64        0x0 c:/ti/ccsv6/tools/compiler/gcc_msp430_4.9.14r1_167/bin/../lib/gcc/msp430-elf/4.9.1/../../../../msp430-elf/lib/large\libc.a(lib_a-strcmp.o)
 .data          0x00001d64        0x0 c:/ti/ccsv6/tools/compiler/gcc_msp430_4.9.14r1_167/bin/../lib/gcc/msp430-elf/4.9.1/../../../../msp430-elf/lib/large\libc.a(lib_a-strlen.o)
 .data          0x00001d64        0x0 c:/ti/ccsv6/tools/compiler/gcc_msp430_4.9.14r1_167/bin/../lib/gcc/msp430-elf/4.9.1/../../../../msp430-elf/lib/large\libc.a(lib_a-svfiprintf.o)
 .data          0x00001d64        0x0 c:/ti/ccsv6/tools/compiler/gcc_msp430_4.9.14r1_167/bin/../lib/gcc/msp430-elf/4.9.1/../../../../msp430-elf/lib/large\libc.a(lib_a-memmove.o)
 .data          0x00001d64        0x0 c:/ti/ccsv6/tools/compiler/gcc_msp430_4.9.14r1_167/bin/../lib/gcc/msp430-elf/4.9.1/../../../../msp430-elf/lib/large\libc.a(lib_a-nano-reallocr.o)
 .data          0x00001d64        0x0 c:/ti/ccsv6/tools/compiler/gcc_msp430_4.9.14r1_167/bin/../lib/gcc/msp430-elf/4.9.1/../../../../msp430-elf/lib/large\libc.a(lib_a-reent.o)
 .data          0x00001d64        0x0 c:/ti/ccsv6/tools/compiler/gcc_msp430_4.9.14r1_167/bin/../lib/gcc/msp430-elf/4.9.1/../../../../msp430-elf/lib/large\libc.a(lib_a-nano-msizer.o)
 .data          0x00001d64        0x0 c:/ti/ccsv6/tools/compiler/gcc_msp430_4.9.14r1_167/bin/../lib/gcc/msp430-elf/4.9.1/large\libgcc.a(_addsub_df.o)
 .data          0x00001d64        0x0 c:/ti/ccsv6/tools/compiler/gcc_msp430_4.9.14r1_167/bin/../lib/gcc/msp430-elf/4.9.1/large\libgcc.a(_mul_df.o)
 .data          0x00001d64        0x0 c:/ti/ccsv6/tools/compiler/gcc_msp430_4.9.14r1_167/bin/../lib/gcc/msp430-elf/4.9.1/large\libgcc.a(_div_df.o)
 .data          0x00001d64        0x0 c:/ti/ccsv6/tools/compiler/gcc_msp430_4.9.14r1_167/bin/../lib/gcc/msp430-elf/4.9.1/large\libgcc.a(_eq_df.o)
 .data          0x00001d64        0x0 c:/ti/ccsv6/tools/compiler/gcc_msp430_4.9.14r1_167/bin/../lib/gcc/msp430-elf/4.9.1/large\libgcc.a(_ne_df.o)
 .data          0x00001d64        0x0 c:/ti/ccsv6/tools/compiler/gcc_msp430_4.9.14r1_167/bin/../lib/gcc/msp430-elf/4.9.1/large\libgcc.a(_gt_df.o)
 .data          0x00001d64        0x0 c:/ti/ccsv6/tools/compiler/gcc_msp430_4.9.14r1_167/bin/../lib/gcc/msp430-elf/4.9.1/large\libgcc.a(_ge_df.o)
 .data          0x00001d64        0x0 c:/ti/ccsv6/tools/compiler/gcc_msp430_4.9.14r1_167/bin/../lib/gcc/msp430-elf/4.9.1/large\libgcc.a(_lt_df.o)
 .data          0x00001d64        0x0 c:/ti/ccsv6/tools/compiler/gcc_msp430_4.9.14r1_167/bin/../lib/gcc/msp430-elf/4.9.1/large\libgcc.a(_si_to_df.o)
 .data          0x00001d64        0x0 c:/ti/ccsv6/tools/compiler/gcc_msp430_4.9.14r1_167/bin/../lib/gcc/msp430-elf/4.9.1/large\libgcc.a(_df_to_si.o)
 .data          0x00001d64        0x0 c:/ti/ccsv6/tools/compiler/gcc_msp430_4.9.14r1_167/bin/../lib/gcc/msp430-elf/4.9.1/large\libgcc.a(_thenan_df.o)
 .data          0x00001d64        0x0 c:/ti/ccsv6/tools/compiler/gcc_msp430_4.9.14r1_167/bin/../lib/gcc/msp430-elf/4.9.1/large\libgcc.a(_usi_to_df.o)
 .data          0x00001d64        0x0 c:/ti/ccsv6/tools/compiler/gcc_msp430_4.9.14r1_167/bin/../lib/gcc/msp430-elf/4.9.1/large\libgcc.a(lib2divHI.o)
 .data          0x00001d64        0x0 c:/ti/ccsv6/tools/compiler/gcc_msp430_4.9.14r1_167/bin/../lib/gcc/msp430-elf/4.9.1/large\libgcc.a(lib2divSI.o)
 .data          0x00001d64        0x0 c:/ti/ccsv6/tools/compiler/gcc_msp430_4.9.14r1_167/bin/../lib/gcc/msp430-elf/4.9.1/large\libgcc.a(slli.o)
 .data          0x00001d64        0x0 c:/ti/ccsv6/tools/compiler/gcc_msp430_4.9.14r1_167/bin/../lib/gcc/msp430-elf/4.9.1/large\libgcc.a(srai.o)
 .data          0x00001d64        0x0 c:/ti/ccsv6/tools/compiler/gcc_msp430_4.9.14r1_167/bin/../lib/gcc/msp430-elf/4.9.1/large\libgcc.a(srli.o)
 .data          0x00001d64        0x0 c:/ti/ccsv6/tools/compiler/gcc_msp430_4.9.14r1_167/bin/../lib/gcc/msp430-elf/4.9.1/large\libgcc.a(lib2hw_mul.o)
 .data          0x00001d64        0x0 c:/ti/ccsv6/tools/compiler/gcc_msp430_4.9.14r1_167/bin/../lib/gcc/msp430-elf/4.9.1/large\libgcc.a(_muldi3.o)
 .data          0x00001d64        0x0 c:/ti/ccsv6/tools/compiler/gcc_msp430_4.9.14r1_167/bin/../lib/gcc/msp430-elf/4.9.1/large\libgcc.a(_lshrdi3.o)
 .data          0x00001d64        0x0 c:/ti/ccsv6/tools/compiler/gcc_msp430_4.9.14r1_167/bin/../lib/gcc/msp430-elf/4.9.1/large\libgcc.a(_ashldi3.o)
 .data          0x00001d64        0x0 c:/ti/ccsv6/tools/compiler/gcc_msp430_4.9.14r1_167/bin/../lib/gcc/msp430-elf/4.9.1/large\libgcc.a(_clzsi2.o)
 .data          0x00001d64        0x0 c:/ti/ccsv6/tools/compiler/gcc_msp430_4.9.14r1_167/bin/../lib/gcc/msp430-elf/4.9.1/large\libgcc.a(_pack_df.o)
 .data          0x00001d64        0x0 c:/ti/ccsv6/tools/compiler/gcc_msp430_4.9.14r1_167/bin/../lib/gcc/msp430-elf/4.9.1/large\libgcc.a(_unpack_df.o)
 .data          0x00001d64        0x0 c:/ti/ccsv6/tools/compiler/gcc_msp430_4.9.14r1_167/bin/../lib/gcc/msp430-elf/4.9.1/large\libgcc.a(_fpcmp_parts_df.o)
 .data          0x00001d64        0x0 c:/ti/ccsv6/tools/compiler/gcc_msp430_4.9.14r1_167/bin/../lib/gcc/msp430-elf/4.9.1/large\libgcc.a(lib2mul.o)
 .data          0x00001d64        0x0 c:/ti/ccsv6/tools/compiler/gcc_msp430_4.9.14r1_167/bin/../lib/gcc/msp430-elf/4.9.1/large\libgcc.a(_clz.o)
 .data          0x00001d64        0x0 c:/ti/ccsv6/tools/compiler/gcc_msp430_4.9.14r1_167/bin/../lib/gcc/msp430-elf/4.9.1/../../../../msp430-elf/lib/large\libcrt.a(crt_bss.o)
 .data          0x00001d64        0x0 c:/ti/ccsv6/tools/compiler/gcc_msp430_4.9.14r1_167/bin/../lib/gcc/msp430-elf/4.9.1/../../../../msp430-elf/lib/large\libcrt.a(crt_movedata.o)
 .data          0x00001d64        0x0 c:/ti/ccsv6/tools/compiler/gcc_msp430_4.9.14r1_167/bin/../lib/gcc/msp430-elf/4.9.1/../../../../msp430-elf/lib/large\libcrt.a(crt_main.o)
 .data          0x00001d64        0x4 c:/ti/ccsv6/tools/compiler/gcc_msp430_4.9.14r1_167/bin/../lib/gcc/msp430-elf/4.9.1/../../../../msp430-elf/lib/large\libnosys.a(sbrk.o)
 .data          0x00001d68        0x0 c:/ti/ccsv6/tools/compiler/gcc_msp430_4.9.14r1_167/bin/../lib/gcc/msp430-elf/4.9.1/../../../../msp430-elf/lib/large\libnosys.a(write.o)
 .data          0x00001d68       0x4b c:/ti/ccsv6/tools/compiler/gcc_msp430_4.9.14r1_167/bin/../lib/gcc/msp430-elf/4.9.1/../../../../msp430-elf/lib/large\libnosys.a(cio.o)
                0x00001d68                _CIOBUF_
                0x00001d68                __CIOBUF__
 .data          0x00001db3        0x0 c:/ti/ccsv6/tools/compiler/gcc_msp430_4.9.14r1_167/bin/../lib/gcc/msp430-elf/4.9.1/../../../../msp430-elf/lib/large\libc.a(lib_a-abort.o)
 .data          0x00001db3        0x0 c:/ti/ccsv6/tools/compiler/gcc_msp430_4.9.14r1_167/bin/../lib/gcc/msp430-elf/4.9.1/../../../../msp430-elf/lib/large\libc.a(lib_a-signal.o)
 .data          0x00001db3        0x0 c:/ti/ccsv6/tools/compiler/gcc_msp430_4.9.14r1_167/bin/../lib/gcc/msp430-elf/4.9.1/../../../../msp430-elf/lib/large\libc.a(lib_a-signalr.o)
 .data          0x00001db3        0x0 c:/ti/ccsv6/tools/compiler/gcc_msp430_4.9.14r1_167/bin/../lib/gcc/msp430-elf/4.9.1/../../../../msp430-elf/lib/large\libnosys.a(nosyscalls.o)
 .data          0x00001db3        0x0 c:/ti/ccsv6/tools/compiler/gcc_msp430_4.9.14r1_167/bin/../lib/gcc/msp430-elf/4.9.1/../../../../msp430-elf/lib/large\libc.a(lib_a-errno.o)
 .data          0x00001db3        0x0 c:/ti/ccsv6/tools/compiler/gcc_msp430_4.9.14r1_167/bin/../lib/gcc/msp430-elf/4.9.1/large/crtend.o
 .data          0x00001db3        0x0 c:/ti/ccsv6/tools/compiler/gcc_msp430_4.9.14r1_167/bin/../lib/gcc/msp430-elf/4.9.1/../../../../msp430-elf/lib/large/crtn.o
 *(.gnu.linkonce.d.*personality*)
 *(.data1)
 *(.got.plt)
 *(.got)
                0x00001db4                . = ALIGN (0x2)
 *fill*         0x00001db3        0x1 
 *(.sdata .sdata.* .gnu.linkonce.s.* D_2 D_1)
                0x00001db4                . = ALIGN (0x2)
                0x00001db4                _edata = .
                0x00001db4                PROVIDE (edata, .)
                0x00001db4                PROVIDE (__dataend, .)
                0x00005f40                PROVIDE (__romdatastart, LOADADDR (.data))
                0x000001b4                PROVIDE (__romdatacopysize, SIZEOF (.data))

.bss            0x00001db4       0x30 load address 0x000060f4
                0x00001db4                . = ALIGN (0x2)
                0x00001db4                PROVIDE (__bssstart, .)
 *(.lower.bss.* .lower.bss)
                0x00001db4                . = ALIGN (0x2)
 *(.either.bss.* .either.bss)
 *(.dynbss)
 *(.sbss .sbss.*)
 *(.bss .bss.* .gnu.linkonce.b.*)
 .bss           0x00001db4        0x0 c:/ti/ccsv6/tools/compiler/gcc_msp430_4.9.14r1_167/bin/../lib/gcc/msp430-elf/4.9.1/../../../../msp430-elf/lib/large/crt0.o
 .bss           0x00001db4       0x1e c:/ti/ccsv6/tools/compiler/gcc_msp430_4.9.14r1_167/bin/../lib/gcc/msp430-elf/4.9.1/large/crtbegin.o
 .bss           0x00001dd2        0x0 ./main.o
 .bss           0x00001dd2        0x0 c:/ti/ccsv6/tools/compiler/gcc_msp430_4.9.14r1_167/bin/../lib/gcc/msp430-elf/4.9.1/../../../../msp430-elf/lib/large\libc.a(lib_a-memset.o)
 .bss           0x00001dd2        0x0 c:/ti/ccsv6/tools/compiler/gcc_msp430_4.9.14r1_167/bin/../lib/gcc/msp430-elf/4.9.1/../../../../msp430-elf/lib/large\libc.a(lib_a-sprintf.o)
 .bss           0x00001dd2        0x0 c:/ti/ccsv6/tools/compiler/gcc_msp430_4.9.14r1_167/bin/../lib/gcc/msp430-elf/4.9.1/../../../../msp430-elf/lib/large\libc.a(lib_a-svfprintf.o)
 .bss           0x00001dd2        0x0 c:/ti/ccsv6/tools/compiler/gcc_msp430_4.9.14r1_167/bin/../lib/gcc/msp430-elf/4.9.1/../../../../msp430-elf/lib/large\libc.a(lib_a-dtoa.o)
 .bss           0x00001dd2        0x0 c:/ti/ccsv6/tools/compiler/gcc_msp430_4.9.14r1_167/bin/../lib/gcc/msp430-elf/4.9.1/../../../../msp430-elf/lib/large\libc.a(lib_a-impure.o)
 .bss           0x00001dd2        0x0 c:/ti/ccsv6/tools/compiler/gcc_msp430_4.9.14r1_167/bin/../lib/gcc/msp430-elf/4.9.1/../../../../msp430-elf/lib/large\libc.a(lib_a-locale.o)
 .bss._PathLocale
                0x00001dd2        0x4 c:/ti/ccsv6/tools/compiler/gcc_msp430_4.9.14r1_167/bin/../lib/gcc/msp430-elf/4.9.1/../../../../msp430-elf/lib/large\libc.a(lib_a-locale.o)
                0x00001dd2                _PathLocale
 .bss.__mlocale_changed
                0x00001dd6        0x2 c:/ti/ccsv6/tools/compiler/gcc_msp430_4.9.14r1_167/bin/../lib/gcc/msp430-elf/4.9.1/../../../../msp430-elf/lib/large\libc.a(lib_a-locale.o)
                0x00001dd6                __mlocale_changed
 .bss.__nlocale_changed
                0x00001dd8        0x2 c:/ti/ccsv6/tools/compiler/gcc_msp430_4.9.14r1_167/bin/../lib/gcc/msp430-elf/4.9.1/../../../../msp430-elf/lib/large\libc.a(lib_a-locale.o)
                0x00001dd8                __nlocale_changed
 .bss           0x00001dda        0x0 c:/ti/ccsv6/tools/compiler/gcc_msp430_4.9.14r1_167/bin/../lib/gcc/msp430-elf/4.9.1/../../../../msp430-elf/lib/large\libc.a(lib_a-malloc.o)
 .bss           0x00001dda        0x0 c:/ti/ccsv6/tools/compiler/gcc_msp430_4.9.14r1_167/bin/../lib/gcc/msp430-elf/4.9.1/../../../../msp430-elf/lib/large\libc.a(lib_a-memchr.o)
 .bss           0x00001dda        0x0 c:/ti/ccsv6/tools/compiler/gcc_msp430_4.9.14r1_167/bin/../lib/gcc/msp430-elf/4.9.1/../../../../msp430-elf/lib/large\libc.a(lib_a-memcpy.o)
 .bss           0x00001dda        0x0 c:/ti/ccsv6/tools/compiler/gcc_msp430_4.9.14r1_167/bin/../lib/gcc/msp430-elf/4.9.1/../../../../msp430-elf/lib/large\libc.a(lib_a-mprec.o)
 .bss           0x00001dda        0x0 c:/ti/ccsv6/tools/compiler/gcc_msp430_4.9.14r1_167/bin/../lib/gcc/msp430-elf/4.9.1/../../../../msp430-elf/lib/large\libc.a(lib_a-nano-callocr.o)
 .bss           0x00001dda        0x0 c:/ti/ccsv6/tools/compiler/gcc_msp430_4.9.14r1_167/bin/../lib/gcc/msp430-elf/4.9.1/../../../../msp430-elf/lib/large\libc.a(lib_a-nano-freer.o)
 .bss           0x00001dda        0x0 c:/ti/ccsv6/tools/compiler/gcc_msp430_4.9.14r1_167/bin/../lib/gcc/msp430-elf/4.9.1/../../../../msp430-elf/lib/large\libc.a(lib_a-nano-mallocr.o)
 .bss.__malloc_sbrk_start
                0x00001dda        0x4 c:/ti/ccsv6/tools/compiler/gcc_msp430_4.9.14r1_167/bin/../lib/gcc/msp430-elf/4.9.1/../../../../msp430-elf/lib/large\libc.a(lib_a-nano-mallocr.o)
                0x00001dda                __malloc_sbrk_start
 .bss.__malloc_free_list
                0x00001dde        0x4 c:/ti/ccsv6/tools/compiler/gcc_msp430_4.9.14r1_167/bin/../lib/gcc/msp430-elf/4.9.1/../../../../msp430-elf/lib/large\libc.a(lib_a-nano-mallocr.o)
                0x00001dde                __malloc_free_list
 .bss           0x00001de2        0x0 c:/ti/ccsv6/tools/compiler/gcc_msp430_4.9.14r1_167/bin/../lib/gcc/msp430-elf/4.9.1/../../../../msp430-elf/lib/large\libc.a(lib_a-s_fpclassify.o)
 .bss           0x00001de2        0x0 c:/ti/ccsv6/tools/compiler/gcc_msp430_4.9.14r1_167/bin/../lib/gcc/msp430-elf/4.9.1/../../../../msp430-elf/lib/large\libc.a(lib_a-sbrkr.o)
 .bss           0x00001de2        0x0 c:/ti/ccsv6/tools/compiler/gcc_msp430_4.9.14r1_167/bin/../lib/gcc/msp430-elf/4.9.1/../../../../msp430-elf/lib/large\libc.a(lib_a-strcmp.o)
 .bss           0x00001de2        0x0 c:/ti/ccsv6/tools/compiler/gcc_msp430_4.9.14r1_167/bin/../lib/gcc/msp430-elf/4.9.1/../../../../msp430-elf/lib/large\libc.a(lib_a-strlen.o)
 .bss           0x00001de2        0x0 c:/ti/ccsv6/tools/compiler/gcc_msp430_4.9.14r1_167/bin/../lib/gcc/msp430-elf/4.9.1/../../../../msp430-elf/lib/large\libc.a(lib_a-svfiprintf.o)
 .bss           0x00001de2        0x0 c:/ti/ccsv6/tools/compiler/gcc_msp430_4.9.14r1_167/bin/../lib/gcc/msp430-elf/4.9.1/../../../../msp430-elf/lib/large\libc.a(lib_a-memmove.o)
 .bss           0x00001de2        0x0 c:/ti/ccsv6/tools/compiler/gcc_msp430_4.9.14r1_167/bin/../lib/gcc/msp430-elf/4.9.1/../../../../msp430-elf/lib/large\libc.a(lib_a-nano-reallocr.o)
 .bss           0x00001de2        0x0 c:/ti/ccsv6/tools/compiler/gcc_msp430_4.9.14r1_167/bin/../lib/gcc/msp430-elf/4.9.1/../../../../msp430-elf/lib/large\libc.a(lib_a-reent.o)
 .bss           0x00001de2        0x0 c:/ti/ccsv6/tools/compiler/gcc_msp430_4.9.14r1_167/bin/../lib/gcc/msp430-elf/4.9.1/../../../../msp430-elf/lib/large\libc.a(lib_a-nano-msizer.o)
 .bss           0x00001de2        0x0 c:/ti/ccsv6/tools/compiler/gcc_msp430_4.9.14r1_167/bin/../lib/gcc/msp430-elf/4.9.1/large\libgcc.a(_addsub_df.o)
 .bss           0x00001de2        0x0 c:/ti/ccsv6/tools/compiler/gcc_msp430_4.9.14r1_167/bin/../lib/gcc/msp430-elf/4.9.1/large\libgcc.a(_mul_df.o)
 .bss           0x00001de2        0x0 c:/ti/ccsv6/tools/compiler/gcc_msp430_4.9.14r1_167/bin/../lib/gcc/msp430-elf/4.9.1/large\libgcc.a(_div_df.o)
 .bss           0x00001de2        0x0 c:/ti/ccsv6/tools/compiler/gcc_msp430_4.9.14r1_167/bin/../lib/gcc/msp430-elf/4.9.1/large\libgcc.a(_eq_df.o)
 .bss           0x00001de2        0x0 c:/ti/ccsv6/tools/compiler/gcc_msp430_4.9.14r1_167/bin/../lib/gcc/msp430-elf/4.9.1/large\libgcc.a(_ne_df.o)
 .bss           0x00001de2        0x0 c:/ti/ccsv6/tools/compiler/gcc_msp430_4.9.14r1_167/bin/../lib/gcc/msp430-elf/4.9.1/large\libgcc.a(_gt_df.o)
 .bss           0x00001de2        0x0 c:/ti/ccsv6/tools/compiler/gcc_msp430_4.9.14r1_167/bin/../lib/gcc/msp430-elf/4.9.1/large\libgcc.a(_ge_df.o)
 .bss           0x00001de2        0x0 c:/ti/ccsv6/tools/compiler/gcc_msp430_4.9.14r1_167/bin/../lib/gcc/msp430-elf/4.9.1/large\libgcc.a(_lt_df.o)
 .bss           0x00001de2        0x0 c:/ti/ccsv6/tools/compiler/gcc_msp430_4.9.14r1_167/bin/../lib/gcc/msp430-elf/4.9.1/large\libgcc.a(_si_to_df.o)
 .bss           0x00001de2        0x0 c:/ti/ccsv6/tools/compiler/gcc_msp430_4.9.14r1_167/bin/../lib/gcc/msp430-elf/4.9.1/large\libgcc.a(_df_to_si.o)
 .bss           0x00001de2        0x0 c:/ti/ccsv6/tools/compiler/gcc_msp430_4.9.14r1_167/bin/../lib/gcc/msp430-elf/4.9.1/large\libgcc.a(_thenan_df.o)
 .bss           0x00001de2        0x0 c:/ti/ccsv6/tools/compiler/gcc_msp430_4.9.14r1_167/bin/../lib/gcc/msp430-elf/4.9.1/large\libgcc.a(_usi_to_df.o)
 .bss           0x00001de2        0x0 c:/ti/ccsv6/tools/compiler/gcc_msp430_4.9.14r1_167/bin/../lib/gcc/msp430-elf/4.9.1/large\libgcc.a(lib2divHI.o)
 .bss           0x00001de2        0x0 c:/ti/ccsv6/tools/compiler/gcc_msp430_4.9.14r1_167/bin/../lib/gcc/msp430-elf/4.9.1/large\libgcc.a(lib2divSI.o)
 .bss           0x00001de2        0x0 c:/ti/ccsv6/tools/compiler/gcc_msp430_4.9.14r1_167/bin/../lib/gcc/msp430-elf/4.9.1/large\libgcc.a(slli.o)
 .bss           0x00001de2        0x0 c:/ti/ccsv6/tools/compiler/gcc_msp430_4.9.14r1_167/bin/../lib/gcc/msp430-elf/4.9.1/large\libgcc.a(srai.o)
 .bss           0x00001de2        0x0 c:/ti/ccsv6/tools/compiler/gcc_msp430_4.9.14r1_167/bin/../lib/gcc/msp430-elf/4.9.1/large\libgcc.a(srli.o)
 .bss           0x00001de2        0x0 c:/ti/ccsv6/tools/compiler/gcc_msp430_4.9.14r1_167/bin/../lib/gcc/msp430-elf/4.9.1/large\libgcc.a(lib2hw_mul.o)
 .bss           0x00001de2        0x0 c:/ti/ccsv6/tools/compiler/gcc_msp430_4.9.14r1_167/bin/../lib/gcc/msp430-elf/4.9.1/large\libgcc.a(_muldi3.o)
 .bss           0x00001de2        0x0 c:/ti/ccsv6/tools/compiler/gcc_msp430_4.9.14r1_167/bin/../lib/gcc/msp430-elf/4.9.1/large\libgcc.a(_lshrdi3.o)
 .bss           0x00001de2        0x0 c:/ti/ccsv6/tools/compiler/gcc_msp430_4.9.14r1_167/bin/../lib/gcc/msp430-elf/4.9.1/large\libgcc.a(_ashldi3.o)
 .bss           0x00001de2        0x0 c:/ti/ccsv6/tools/compiler/gcc_msp430_4.9.14r1_167/bin/../lib/gcc/msp430-elf/4.9.1/large\libgcc.a(_clzsi2.o)
 .bss           0x00001de2        0x0 c:/ti/ccsv6/tools/compiler/gcc_msp430_4.9.14r1_167/bin/../lib/gcc/msp430-elf/4.9.1/large\libgcc.a(_pack_df.o)
 .bss           0x00001de2        0x0 c:/ti/ccsv6/tools/compiler/gcc_msp430_4.9.14r1_167/bin/../lib/gcc/msp430-elf/4.9.1/large\libgcc.a(_unpack_df.o)
 .bss           0x00001de2        0x0 c:/ti/ccsv6/tools/compiler/gcc_msp430_4.9.14r1_167/bin/../lib/gcc/msp430-elf/4.9.1/large\libgcc.a(_fpcmp_parts_df.o)
 .bss           0x00001de2        0x0 c:/ti/ccsv6/tools/compiler/gcc_msp430_4.9.14r1_167/bin/../lib/gcc/msp430-elf/4.9.1/large\libgcc.a(lib2mul.o)
 .bss           0x00001de2        0x0 c:/ti/ccsv6/tools/compiler/gcc_msp430_4.9.14r1_167/bin/../lib/gcc/msp430-elf/4.9.1/large\libgcc.a(_clz.o)
 .bss           0x00001de2        0x0 c:/ti/ccsv6/tools/compiler/gcc_msp430_4.9.14r1_167/bin/../lib/gcc/msp430-elf/4.9.1/../../../../msp430-elf/lib/large\libcrt.a(crt_bss.o)
 .bss           0x00001de2        0x0 c:/ti/ccsv6/tools/compiler/gcc_msp430_4.9.14r1_167/bin/../lib/gcc/msp430-elf/4.9.1/../../../../msp430-elf/lib/large\libcrt.a(crt_movedata.o)
 .bss           0x00001de2        0x0 c:/ti/ccsv6/tools/compiler/gcc_msp430_4.9.14r1_167/bin/../lib/gcc/msp430-elf/4.9.1/../../../../msp430-elf/lib/large\libcrt.a(crt_main.o)
 .bss           0x00001de2        0x0 c:/ti/ccsv6/tools/compiler/gcc_msp430_4.9.14r1_167/bin/../lib/gcc/msp430-elf/4.9.1/../../../../msp430-elf/lib/large\libnosys.a(sbrk.o)
 .bss           0x00001de2        0x0 c:/ti/ccsv6/tools/compiler/gcc_msp430_4.9.14r1_167/bin/../lib/gcc/msp430-elf/4.9.1/../../../../msp430-elf/lib/large\libnosys.a(write.o)
 .bss           0x00001de2        0x0 c:/ti/ccsv6/tools/compiler/gcc_msp430_4.9.14r1_167/bin/../lib/gcc/msp430-elf/4.9.1/../../../../msp430-elf/lib/large\libnosys.a(cio.o)
 .bss           0x00001de2        0x0 c:/ti/ccsv6/tools/compiler/gcc_msp430_4.9.14r1_167/bin/../lib/gcc/msp430-elf/4.9.1/../../../../msp430-elf/lib/large\libc.a(lib_a-abort.o)
 .bss           0x00001de2        0x0 c:/ti/ccsv6/tools/compiler/gcc_msp430_4.9.14r1_167/bin/../lib/gcc/msp430-elf/4.9.1/../../../../msp430-elf/lib/large\libc.a(lib_a-signal.o)
 .bss           0x00001de2        0x0 c:/ti/ccsv6/tools/compiler/gcc_msp430_4.9.14r1_167/bin/../lib/gcc/msp430-elf/4.9.1/../../../../msp430-elf/lib/large\libc.a(lib_a-signalr.o)
 .bss           0x00001de2        0x0 c:/ti/ccsv6/tools/compiler/gcc_msp430_4.9.14r1_167/bin/../lib/gcc/msp430-elf/4.9.1/../../../../msp430-elf/lib/large\libnosys.a(nosyscalls.o)
 .bss           0x00001de2        0x0 c:/ti/ccsv6/tools/compiler/gcc_msp430_4.9.14r1_167/bin/../lib/gcc/msp430-elf/4.9.1/../../../../msp430-elf/lib/large\libc.a(lib_a-errno.o)
 .bss           0x00001de2        0x0 c:/ti/ccsv6/tools/compiler/gcc_msp430_4.9.14r1_167/bin/../lib/gcc/msp430-elf/4.9.1/large/crtend.o
 .bss           0x00001de2        0x0 c:/ti/ccsv6/tools/compiler/gcc_msp430_4.9.14r1_167/bin/../lib/gcc/msp430-elf/4.9.1/../../../../msp430-elf/lib/large/crtn.o
                0x00001de2                . = ALIGN (0x2)
 *(COMMON)
 COMMON         0x00001de2        0x2 c:/ti/ccsv6/tools/compiler/gcc_msp430_4.9.14r1_167/bin/../lib/gcc/msp430-elf/4.9.1/../../../../msp430-elf/lib/large\libc.a(lib_a-reent.o)
                0x00001de2                errno
                0x00001de4                PROVIDE (__bssend, .)
                0x00000030                PROVIDE (__bsssize, SIZEOF (.bss))

.noinit         0x00001de4        0x0 load address 0x000060f4
                0x00001de4                . = ALIGN (0x2)
                0x00001de4                PROVIDE (__noinit_start, .)
 *(.noinit)
                0x00001de4                . = ALIGN (0x2)
                0x00001de4                PROVIDE (__noinit_end, .)
                0x00001de4                _end = .
                0x00001de4                PROVIDE (end, .)

.stack          0x00005c00        0x0
                0x00005c00                PROVIDE (__stack, .)
 *(.stack)

.lowtext        0x000060f4       0x98
                0x000060f4                PROVIDE (_start, .)
                0x000060f4                . = ALIGN (0x2)
 *(SORT(.crt_*))
 .crt_0000start
                0x000060f4        0xa c:/ti/ccsv6/tools/compiler/gcc_msp430_4.9.14r1_167/bin/../lib/gcc/msp430-elf/4.9.1/../../../../msp430-elf/lib/large/crt0.o
                0x000060f4                __crt0_start
 .crt_0100init_bss
                0x000060fe       0x10 c:/ti/ccsv6/tools/compiler/gcc_msp430_4.9.14r1_167/bin/../lib/gcc/msp430-elf/4.9.1/../../../../msp430-elf/lib/large\libcrt.a(crt_bss.o)
                0x000060fe                __crt0_init_bss
 .crt_0300movedata
                0x0000610e       0x14 c:/ti/ccsv6/tools/compiler/gcc_msp430_4.9.14r1_167/bin/../lib/gcc/msp430-elf/4.9.1/../../../../msp430-elf/lib/large\libcrt.a(crt_movedata.o)
                0x0000610e                __crt0_movedata
 .crt_0700call_init_then_main
                0x00006122        0xa c:/ti/ccsv6/tools/compiler/gcc_msp430_4.9.14r1_167/bin/../lib/gcc/msp430-elf/4.9.1/../../../../msp430-elf/lib/large\libcrt.a(crt_main.o)
                0x00006122                __crt0_call_init_then_main
 .crt_0900main_init
                0x0000612c       0x40 c:/ti/ccsv6/tools/compiler/gcc_msp430_4.9.14r1_167/bin/../lib/gcc/msp430-elf/4.9.1/../../../../msp430-elf/lib/large/crt0.o
                0x0000612c                _msp430_run_init_array
                0x0000613c                _msp430_run_preinit_array
                0x0000614c                _msp430_run_fini_array
 *(.lowtext)
 .lowtext       0x0000616c       0x20 ./main.o
                0x0000616c                USCI_A1_ISR

.text           0x0000618c     0x8618
                0x0000618c                . = ALIGN (0x2)
 *(.lower.text.* .lower.text)
                0x0000618c                . = ALIGN (0x2)
 *(.text .stub .text.* .gnu.linkonce.t.* .text:*)
 .text          0x0000618c        0x0 c:/ti/ccsv6/tools/compiler/gcc_msp430_4.9.14r1_167/bin/../lib/gcc/msp430-elf/4.9.1/../../../../msp430-elf/lib/large/crt0.o
 .text          0x0000618c      0x16a c:/ti/ccsv6/tools/compiler/gcc_msp430_4.9.14r1_167/bin/../lib/gcc/msp430-elf/4.9.1/large/crtbegin.o
 .text          0x000062f6       0xdc ./main.o
                0x000062f6                msp430_uart_putc
                0x0000630a                msp430_uart_puts
                0x00006336                main
 .text          0x000063d2        0x0 c:/ti/ccsv6/tools/compiler/gcc_msp430_4.9.14r1_167/bin/../lib/gcc/msp430-elf/4.9.1/../../../../msp430-elf/lib/large\libc.a(lib_a-memset.o)
 .text.memset   0x000063d2       0x1a c:/ti/ccsv6/tools/compiler/gcc_msp430_4.9.14r1_167/bin/../lib/gcc/msp430-elf/4.9.1/../../../../msp430-elf/lib/large\libc.a(lib_a-memset.o)
                0x000063d2                memset
 .text          0x000063ec        0x0 c:/ti/ccsv6/tools/compiler/gcc_msp430_4.9.14r1_167/bin/../lib/gcc/msp430-elf/4.9.1/../../../../msp430-elf/lib/large\libc.a(lib_a-sprintf.o)
 .text._sprintf_r
                0x000063ec       0x3e c:/ti/ccsv6/tools/compiler/gcc_msp430_4.9.14r1_167/bin/../lib/gcc/msp430-elf/4.9.1/../../../../msp430-elf/lib/large\libc.a(lib_a-sprintf.o)
                0x000063ec                _sprintf_r
 .text.sprintf  0x0000642a       0x42 c:/ti/ccsv6/tools/compiler/gcc_msp430_4.9.14r1_167/bin/../lib/gcc/msp430-elf/4.9.1/../../../../msp430-elf/lib/large\libc.a(lib_a-sprintf.o)
                0x0000642a                sprintf
 .text          0x0000646c        0x0 c:/ti/ccsv6/tools/compiler/gcc_msp430_4.9.14r1_167/bin/../lib/gcc/msp430-elf/4.9.1/../../../../msp430-elf/lib/large\libc.a(lib_a-svfprintf.o)
 .text._svfprintf_r
                0x0000646c     0x1d24 c:/ti/ccsv6/tools/compiler/gcc_msp430_4.9.14r1_167/bin/../lib/gcc/msp430-elf/4.9.1/../../../../msp430-elf/lib/large\libc.a(lib_a-svfprintf.o)
                0x0000646c                _svfprintf_r
 .text          0x00008190        0x0 c:/ti/ccsv6/tools/compiler/gcc_msp430_4.9.14r1_167/bin/../lib/gcc/msp430-elf/4.9.1/../../../../msp430-elf/lib/large\libc.a(lib_a-dtoa.o)
 .text.quorem   0x00008190      0x33a c:/ti/ccsv6/tools/compiler/gcc_msp430_4.9.14r1_167/bin/../lib/gcc/msp430-elf/4.9.1/../../../../msp430-elf/lib/large\libc.a(lib_a-dtoa.o)
 .text._dtoa_r  0x000084ca     0x14ca c:/ti/ccsv6/tools/compiler/gcc_msp430_4.9.14r1_167/bin/../lib/gcc/msp430-elf/4.9.1/../../../../msp430-elf/lib/large\libc.a(lib_a-dtoa.o)
                0x000084ca                _dtoa_r
 .text          0x00009994        0x0 c:/ti/ccsv6/tools/compiler/gcc_msp430_4.9.14r1_167/bin/../lib/gcc/msp430-elf/4.9.1/../../../../msp430-elf/lib/large\libc.a(lib_a-impure.o)
 .text          0x00009994        0x0 c:/ti/ccsv6/tools/compiler/gcc_msp430_4.9.14r1_167/bin/../lib/gcc/msp430-elf/4.9.1/../../../../msp430-elf/lib/large\libc.a(lib_a-locale.o)
 .text._setlocale_r
                0x00009994       0x46 c:/ti/ccsv6/tools/compiler/gcc_msp430_4.9.14r1_167/bin/../lib/gcc/msp430-elf/4.9.1/../../../../msp430-elf/lib/large\libc.a(lib_a-locale.o)
                0x00009994                _setlocale_r
 .text.__locale_charset
                0x000099da        0x6 c:/ti/ccsv6/tools/compiler/gcc_msp430_4.9.14r1_167/bin/../lib/gcc/msp430-elf/4.9.1/../../../../msp430-elf/lib/large\libc.a(lib_a-locale.o)
                0x000099da                __locale_charset
 .text.__locale_mb_cur_max
                0x000099e0        0x8 c:/ti/ccsv6/tools/compiler/gcc_msp430_4.9.14r1_167/bin/../lib/gcc/msp430-elf/4.9.1/../../../../msp430-elf/lib/large\libc.a(lib_a-locale.o)
                0x000099e0                __locale_mb_cur_max
 .text.__locale_msgcharset
                0x000099e8        0x6 c:/ti/ccsv6/tools/compiler/gcc_msp430_4.9.14r1_167/bin/../lib/gcc/msp430-elf/4.9.1/../../../../msp430-elf/lib/large\libc.a(lib_a-locale.o)
                0x000099e8                __locale_msgcharset
 .text.__locale_cjk_lang
                0x000099ee        0x4 c:/ti/ccsv6/tools/compiler/gcc_msp430_4.9.14r1_167/bin/../lib/gcc/msp430-elf/4.9.1/../../../../msp430-elf/lib/large\libc.a(lib_a-locale.o)
                0x000099ee                __locale_cjk_lang
 .text._localeconv_r
                0x000099f2        0x6 c:/ti/ccsv6/tools/compiler/gcc_msp430_4.9.14r1_167/bin/../lib/gcc/msp430-elf/4.9.1/../../../../msp430-elf/lib/large\libc.a(lib_a-locale.o)
                0x000099f2                _localeconv_r
 .text.setlocale
                0x000099f8       0x10 c:/ti/ccsv6/tools/compiler/gcc_msp430_4.9.14r1_167/bin/../lib/gcc/msp430-elf/4.9.1/../../../../msp430-elf/lib/large\libc.a(lib_a-locale.o)
                0x000099f8                setlocale
 .text.localeconv
                0x00009a08        0x6 c:/ti/ccsv6/tools/compiler/gcc_msp430_4.9.14r1_167/bin/../lib/gcc/msp430-elf/4.9.1/../../../../msp430-elf/lib/large\libc.a(lib_a-locale.o)
                0x00009a08                localeconv
 .text          0x00009a0e        0x0 c:/ti/ccsv6/tools/compiler/gcc_msp430_4.9.14r1_167/bin/../lib/gcc/msp430-elf/4.9.1/../../../../msp430-elf/lib/large\libc.a(lib_a-malloc.o)
 .text.malloc   0x00009a0e        0xc c:/ti/ccsv6/tools/compiler/gcc_msp430_4.9.14r1_167/bin/../lib/gcc/msp430-elf/4.9.1/../../../../msp430-elf/lib/large\libc.a(lib_a-malloc.o)
                0x00009a0e                malloc
 .text.free     0x00009a1a        0xc c:/ti/ccsv6/tools/compiler/gcc_msp430_4.9.14r1_167/bin/../lib/gcc/msp430-elf/4.9.1/../../../../msp430-elf/lib/large\libc.a(lib_a-malloc.o)
                0x00009a1a                free
 .text          0x00009a26        0x0 c:/ti/ccsv6/tools/compiler/gcc_msp430_4.9.14r1_167/bin/../lib/gcc/msp430-elf/4.9.1/../../../../msp430-elf/lib/large\libc.a(lib_a-memchr.o)
 .text.memchr   0x00009a26       0x1e c:/ti/ccsv6/tools/compiler/gcc_msp430_4.9.14r1_167/bin/../lib/gcc/msp430-elf/4.9.1/../../../../msp430-elf/lib/large\libc.a(lib_a-memchr.o)
                0x00009a26                memchr
 .text          0x00009a44        0x0 c:/ti/ccsv6/tools/compiler/gcc_msp430_4.9.14r1_167/bin/../lib/gcc/msp430-elf/4.9.1/../../../../msp430-elf/lib/large\libc.a(lib_a-memcpy.o)
 .text.memcpy   0x00009a44       0x2c c:/ti/ccsv6/tools/compiler/gcc_msp430_4.9.14r1_167/bin/../lib/gcc/msp430-elf/4.9.1/../../../../msp430-elf/lib/large\libc.a(lib_a-memcpy.o)
                0x00009a44                memcpy
 .text          0x00009a70        0x0 c:/ti/ccsv6/tools/compiler/gcc_msp430_4.9.14r1_167/bin/../lib/gcc/msp430-elf/4.9.1/../../../../msp430-elf/lib/large\libc.a(lib_a-mprec.o)
 .text._Balloc  0x00009a70       0xec c:/ti/ccsv6/tools/compiler/gcc_msp430_4.9.14r1_167/bin/../lib/gcc/msp430-elf/4.9.1/../../../../msp430-elf/lib/large\libc.a(lib_a-mprec.o)
                0x00009a70                _Balloc
 .text._Bfree   0x00009b5c       0x72 c:/ti/ccsv6/tools/compiler/gcc_msp430_4.9.14r1_167/bin/../lib/gcc/msp430-elf/4.9.1/../../../../msp430-elf/lib/large\libc.a(lib_a-mprec.o)
                0x00009b5c                _Bfree
 .text.__multadd
                0x00009bce      0x15a c:/ti/ccsv6/tools/compiler/gcc_msp430_4.9.14r1_167/bin/../lib/gcc/msp430-elf/4.9.1/../../../../msp430-elf/lib/large\libc.a(lib_a-mprec.o)
                0x00009bce                __multadd
 .text.__s2b    0x00009d28       0xf4 c:/ti/ccsv6/tools/compiler/gcc_msp430_4.9.14r1_167/bin/../lib/gcc/msp430-elf/4.9.1/../../../../msp430-elf/lib/large\libc.a(lib_a-mprec.o)
                0x00009d28                __s2b
 .text.__hi0bits
                0x00009e1c       0x7a c:/ti/ccsv6/tools/compiler/gcc_msp430_4.9.14r1_167/bin/../lib/gcc/msp430-elf/4.9.1/../../../../msp430-elf/lib/large\libc.a(lib_a-mprec.o)
                0x00009e1c                __hi0bits
 .text.__lo0bits
                0x00009e96       0xcc c:/ti/ccsv6/tools/compiler/gcc_msp430_4.9.14r1_167/bin/../lib/gcc/msp430-elf/4.9.1/../../../../msp430-elf/lib/large\libc.a(lib_a-mprec.o)
                0x00009e96                __lo0bits
 .text.__i2b    0x00009f62       0x22 c:/ti/ccsv6/tools/compiler/gcc_msp430_4.9.14r1_167/bin/../lib/gcc/msp430-elf/4.9.1/../../../../msp430-elf/lib/large\libc.a(lib_a-mprec.o)
                0x00009f62                __i2b
 .text.__multiply
                0x00009f84      0x2d6 c:/ti/ccsv6/tools/compiler/gcc_msp430_4.9.14r1_167/bin/../lib/gcc/msp430-elf/4.9.1/../../../../msp430-elf/lib/large\libc.a(lib_a-mprec.o)
                0x00009f84                __multiply
 .text.__pow5mult
                0x0000a25a       0xce c:/ti/ccsv6/tools/compiler/gcc_msp430_4.9.14r1_167/bin/../lib/gcc/msp430-elf/4.9.1/../../../../msp430-elf/lib/large\libc.a(lib_a-mprec.o)
                0x0000a25a                __pow5mult
 .text.__lshift
                0x0000a328      0x172 c:/ti/ccsv6/tools/compiler/gcc_msp430_4.9.14r1_167/bin/../lib/gcc/msp430-elf/4.9.1/../../../../msp430-elf/lib/large\libc.a(lib_a-mprec.o)
                0x0000a328                __lshift
 .text.__mcmp   0x0000a49a       0x86 c:/ti/ccsv6/tools/compiler/gcc_msp430_4.9.14r1_167/bin/../lib/gcc/msp430-elf/4.9.1/../../../../msp430-elf/lib/large\libc.a(lib_a-mprec.o)
                0x0000a49a                __mcmp
 .text.__mdiff  0x0000a520      0x218 c:/ti/ccsv6/tools/compiler/gcc_msp430_4.9.14r1_167/bin/../lib/gcc/msp430-elf/4.9.1/../../../../msp430-elf/lib/large\libc.a(lib_a-mprec.o)
                0x0000a520                __mdiff
 .text.__ulp    0x0000a738       0xb2 c:/ti/ccsv6/tools/compiler/gcc_msp430_4.9.14r1_167/bin/../lib/gcc/msp430-elf/4.9.1/../../../../msp430-elf/lib/large\libc.a(lib_a-mprec.o)
                0x0000a738                __ulp
 .text.__b2d    0x0000a7ea      0x18c c:/ti/ccsv6/tools/compiler/gcc_msp430_4.9.14r1_167/bin/../lib/gcc/msp430-elf/4.9.1/../../../../msp430-elf/lib/large\libc.a(lib_a-mprec.o)
                0x0000a7ea                __b2d
 .text.__d2b    0x0000a976      0x184 c:/ti/ccsv6/tools/compiler/gcc_msp430_4.9.14r1_167/bin/../lib/gcc/msp430-elf/4.9.1/../../../../msp430-elf/lib/large\libc.a(lib_a-mprec.o)
                0x0000a976                __d2b
 .text.__ratio  0x0000aafa       0xb8 c:/ti/ccsv6/tools/compiler/gcc_msp430_4.9.14r1_167/bin/../lib/gcc/msp430-elf/4.9.1/../../../../msp430-elf/lib/large\libc.a(lib_a-mprec.o)
                0x0000aafa                __ratio
 .text._mprec_log10
                0x0000abb2       0x68 c:/ti/ccsv6/tools/compiler/gcc_msp430_4.9.14r1_167/bin/../lib/gcc/msp430-elf/4.9.1/../../../../msp430-elf/lib/large\libc.a(lib_a-mprec.o)
                0x0000abb2                _mprec_log10
 .text.__copybits
                0x0000ac1a       0x8a c:/ti/ccsv6/tools/compiler/gcc_msp430_4.9.14r1_167/bin/../lib/gcc/msp430-elf/4.9.1/../../../../msp430-elf/lib/large\libc.a(lib_a-mprec.o)
                0x0000ac1a                __copybits
 .text.__any_on
                0x0000aca4       0xb0 c:/ti/ccsv6/tools/compiler/gcc_msp430_4.9.14r1_167/bin/../lib/gcc/msp430-elf/4.9.1/../../../../msp430-elf/lib/large\libc.a(lib_a-mprec.o)
                0x0000aca4                __any_on
 .text          0x0000ad54        0x0 c:/ti/ccsv6/tools/compiler/gcc_msp430_4.9.14r1_167/bin/../lib/gcc/msp430-elf/4.9.1/../../../../msp430-elf/lib/large\libc.a(lib_a-nano-callocr.o)
 .text._calloc_r
                0x0000ad54       0x44 c:/ti/ccsv6/tools/compiler/gcc_msp430_4.9.14r1_167/bin/../lib/gcc/msp430-elf/4.9.1/../../../../msp430-elf/lib/large\libc.a(lib_a-nano-callocr.o)
                0x0000ad54                _calloc_r
 .text          0x0000ad98        0x0 c:/ti/ccsv6/tools/compiler/gcc_msp430_4.9.14r1_167/bin/../lib/gcc/msp430-elf/4.9.1/../../../../msp430-elf/lib/large\libc.a(lib_a-nano-freer.o)
 .text._free_r  0x0000ad98      0x12e c:/ti/ccsv6/tools/compiler/gcc_msp430_4.9.14r1_167/bin/../lib/gcc/msp430-elf/4.9.1/../../../../msp430-elf/lib/large\libc.a(lib_a-nano-freer.o)
                0x0000ad98                _free_r
 .text          0x0000aec6        0x0 c:/ti/ccsv6/tools/compiler/gcc_msp430_4.9.14r1_167/bin/../lib/gcc/msp430-elf/4.9.1/../../../../msp430-elf/lib/large\libc.a(lib_a-nano-mallocr.o)
 .text._malloc_r
                0x0000aec6      0x14c c:/ti/ccsv6/tools/compiler/gcc_msp430_4.9.14r1_167/bin/../lib/gcc/msp430-elf/4.9.1/../../../../msp430-elf/lib/large\libc.a(lib_a-nano-mallocr.o)
                0x0000aec6                _malloc_r
 .text          0x0000b012        0x0 c:/ti/ccsv6/tools/compiler/gcc_msp430_4.9.14r1_167/bin/../lib/gcc/msp430-elf/4.9.1/../../../../msp430-elf/lib/large\libc.a(lib_a-s_fpclassify.o)
 .text.__fpclassifyd
                0x0000b012       0x7a c:/ti/ccsv6/tools/compiler/gcc_msp430_4.9.14r1_167/bin/../lib/gcc/msp430-elf/4.9.1/../../../../msp430-elf/lib/large\libc.a(lib_a-s_fpclassify.o)
                0x0000b012                __fpclassifyd
 .text          0x0000b08c        0x0 c:/ti/ccsv6/tools/compiler/gcc_msp430_4.9.14r1_167/bin/../lib/gcc/msp430-elf/4.9.1/../../../../msp430-elf/lib/large\libc.a(lib_a-sbrkr.o)
 .text._sbrk_r  0x0000b08c       0x28 c:/ti/ccsv6/tools/compiler/gcc_msp430_4.9.14r1_167/bin/../lib/gcc/msp430-elf/4.9.1/../../../../msp430-elf/lib/large\libc.a(lib_a-sbrkr.o)
                0x0000b08c                _sbrk_r
 .text          0x0000b0b4        0x0 c:/ti/ccsv6/tools/compiler/gcc_msp430_4.9.14r1_167/bin/../lib/gcc/msp430-elf/4.9.1/../../../../msp430-elf/lib/large\libc.a(lib_a-strcmp.o)
 .text.strcmp   0x0000b0b4       0x22 c:/ti/ccsv6/tools/compiler/gcc_msp430_4.9.14r1_167/bin/../lib/gcc/msp430-elf/4.9.1/../../../../msp430-elf/lib/large\libc.a(lib_a-strcmp.o)
                0x0000b0b4                strcmp
 .text          0x0000b0d6        0x0 c:/ti/ccsv6/tools/compiler/gcc_msp430_4.9.14r1_167/bin/../lib/gcc/msp430-elf/4.9.1/../../../../msp430-elf/lib/large\libc.a(lib_a-strlen.o)
 .text.strlen   0x0000b0d6       0x16 c:/ti/ccsv6/tools/compiler/gcc_msp430_4.9.14r1_167/bin/../lib/gcc/msp430-elf/4.9.1/../../../../msp430-elf/lib/large\libc.a(lib_a-strlen.o)
                0x0000b0d6                strlen
 .text          0x0000b0ec        0x0 c:/ti/ccsv6/tools/compiler/gcc_msp430_4.9.14r1_167/bin/../lib/gcc/msp430-elf/4.9.1/../../../../msp430-elf/lib/large\libc.a(lib_a-svfiprintf.o)
 .text.__ssprint_r
                0x0000b0ec      0x1b2 c:/ti/ccsv6/tools/compiler/gcc_msp430_4.9.14r1_167/bin/../lib/gcc/msp430-elf/4.9.1/../../../../msp430-elf/lib/large\libc.a(lib_a-svfiprintf.o)
                0x0000b0ec                __ssprint_r
 .text._svfiprintf_r
                0x0000b29e      0xdf0 c:/ti/ccsv6/tools/compiler/gcc_msp430_4.9.14r1_167/bin/../lib/gcc/msp430-elf/4.9.1/../../../../msp430-elf/lib/large\libc.a(lib_a-svfiprintf.o)
                0x0000b29e                _svfiprintf_r
 .text          0x0000c08e        0x0 c:/ti/ccsv6/tools/compiler/gcc_msp430_4.9.14r1_167/bin/../lib/gcc/msp430-elf/4.9.1/../../../../msp430-elf/lib/large\libc.a(lib_a-memmove.o)
 .text.memmove  0x0000c08e       0x5e c:/ti/ccsv6/tools/compiler/gcc_msp430_4.9.14r1_167/bin/../lib/gcc/msp430-elf/4.9.1/../../../../msp430-elf/lib/large\libc.a(lib_a-memmove.o)
                0x0000c08e                memmove
 .text          0x0000c0ec        0x0 c:/ti/ccsv6/tools/compiler/gcc_msp430_4.9.14r1_167/bin/../lib/gcc/msp430-elf/4.9.1/../../../../msp430-elf/lib/large\libc.a(lib_a-nano-reallocr.o)
 .text._realloc_r
                0x0000c0ec       0x68 c:/ti/ccsv6/tools/compiler/gcc_msp430_4.9.14r1_167/bin/../lib/gcc/msp430-elf/4.9.1/../../../../msp430-elf/lib/large\libc.a(lib_a-nano-reallocr.o)
                0x0000c0ec                _realloc_r
 .text          0x0000c154        0x0 c:/ti/ccsv6/tools/compiler/gcc_msp430_4.9.14r1_167/bin/../lib/gcc/msp430-elf/4.9.1/../../../../msp430-elf/lib/large\libc.a(lib_a-reent.o)
 .text.cleanup_glue
                0x0000c154       0x22 c:/ti/ccsv6/tools/compiler/gcc_msp430_4.9.14r1_167/bin/../lib/gcc/msp430-elf/4.9.1/../../../../msp430-elf/lib/large\libc.a(lib_a-reent.o)
                0x0000c154                cleanup_glue
 .text._reclaim_reent
                0x0000c176      0x138 c:/ti/ccsv6/tools/compiler/gcc_msp430_4.9.14r1_167/bin/../lib/gcc/msp430-elf/4.9.1/../../../../msp430-elf/lib/large\libc.a(lib_a-reent.o)
                0x0000c176                _reclaim_reent
 .text          0x0000c2ae        0x0 c:/ti/ccsv6/tools/compiler/gcc_msp430_4.9.14r1_167/bin/../lib/gcc/msp430-elf/4.9.1/../../../../msp430-elf/lib/large\libc.a(lib_a-nano-msizer.o)
 .text._malloc_usable_size_r
                0x0000c2ae       0x32 c:/ti/ccsv6/tools/compiler/gcc_msp430_4.9.14r1_167/bin/../lib/gcc/msp430-elf/4.9.1/../../../../msp430-elf/lib/large\libc.a(lib_a-nano-msizer.o)
                0x0000c2ae                _malloc_usable_size_r
 .text          0x0000c2e0        0x0 c:/ti/ccsv6/tools/compiler/gcc_msp430_4.9.14r1_167/bin/../lib/gcc/msp430-elf/4.9.1/large\libgcc.a(_addsub_df.o)
 .text._fpadd_parts
                0x0000c2e0      0x640 c:/ti/ccsv6/tools/compiler/gcc_msp430_4.9.14r1_167/bin/../lib/gcc/msp430-elf/4.9.1/large\libgcc.a(_addsub_df.o)
 .text.__adddf3
                0x0000c920       0x64 c:/ti/ccsv6/tools/compiler/gcc_msp430_4.9.14r1_167/bin/../lib/gcc/msp430-elf/4.9.1/large\libgcc.a(_addsub_df.o)
                0x0000c920                __mspabi_addd
 .text.__subdf3
                0x0000c984       0x68 c:/ti/ccsv6/tools/compiler/gcc_msp430_4.9.14r1_167/bin/../lib/gcc/msp430-elf/4.9.1/large\libgcc.a(_addsub_df.o)
                0x0000c984                __mspabi_subd
 .text          0x0000c9ec        0x0 c:/ti/ccsv6/tools/compiler/gcc_msp430_4.9.14r1_167/bin/../lib/gcc/msp430-elf/4.9.1/large\libgcc.a(_mul_df.o)
 .text.__muldf3
                0x0000c9ec      0x4f0 c:/ti/ccsv6/tools/compiler/gcc_msp430_4.9.14r1_167/bin/../lib/gcc/msp430-elf/4.9.1/large\libgcc.a(_mul_df.o)
                0x0000c9ec                __mspabi_mpyd
 .text          0x0000cedc        0x0 c:/ti/ccsv6/tools/compiler/gcc_msp430_4.9.14r1_167/bin/../lib/gcc/msp430-elf/4.9.1/large\libgcc.a(_div_df.o)
 .text.__divdf3
                0x0000cedc      0x2e6 c:/ti/ccsv6/tools/compiler/gcc_msp430_4.9.14r1_167/bin/../lib/gcc/msp430-elf/4.9.1/large\libgcc.a(_div_df.o)
                0x0000cedc                __mspabi_divd
 .text          0x0000d1c2        0x0 c:/ti/ccsv6/tools/compiler/gcc_msp430_4.9.14r1_167/bin/../lib/gcc/msp430-elf/4.9.1/large\libgcc.a(_eq_df.o)
 .text.__eqdf2  0x0000d1c2       0x76 c:/ti/ccsv6/tools/compiler/gcc_msp430_4.9.14r1_167/bin/../lib/gcc/msp430-elf/4.9.1/large\libgcc.a(_eq_df.o)
                0x0000d1c2                __eqdf2
 .text          0x0000d238        0x0 c:/ti/ccsv6/tools/compiler/gcc_msp430_4.9.14r1_167/bin/../lib/gcc/msp430-elf/4.9.1/large\libgcc.a(_ne_df.o)
 .text.__nedf2  0x0000d238       0x76 c:/ti/ccsv6/tools/compiler/gcc_msp430_4.9.14r1_167/bin/../lib/gcc/msp430-elf/4.9.1/large\libgcc.a(_ne_df.o)
                0x0000d238                __nedf2
 .text          0x0000d2ae        0x0 c:/ti/ccsv6/tools/compiler/gcc_msp430_4.9.14r1_167/bin/../lib/gcc/msp430-elf/4.9.1/large\libgcc.a(_gt_df.o)
 .text.__gtdf2  0x0000d2ae       0x76 c:/ti/ccsv6/tools/compiler/gcc_msp430_4.9.14r1_167/bin/../lib/gcc/msp430-elf/4.9.1/large\libgcc.a(_gt_df.o)
                0x0000d2ae                __gtdf2
 .text          0x0000d324        0x0 c:/ti/ccsv6/tools/compiler/gcc_msp430_4.9.14r1_167/bin/../lib/gcc/msp430-elf/4.9.1/large\libgcc.a(_ge_df.o)
 .text.__gedf2  0x0000d324       0x76 c:/ti/ccsv6/tools/compiler/gcc_msp430_4.9.14r1_167/bin/../lib/gcc/msp430-elf/4.9.1/large\libgcc.a(_ge_df.o)
                0x0000d324                __gedf2
 .text          0x0000d39a        0x0 c:/ti/ccsv6/tools/compiler/gcc_msp430_4.9.14r1_167/bin/../lib/gcc/msp430-elf/4.9.1/large\libgcc.a(_lt_df.o)
 .text.__ltdf2  0x0000d39a       0x76 c:/ti/ccsv6/tools/compiler/gcc_msp430_4.9.14r1_167/bin/../lib/gcc/msp430-elf/4.9.1/large\libgcc.a(_lt_df.o)
                0x0000d39a                __ltdf2
 .text          0x0000d410        0x0 c:/ti/ccsv6/tools/compiler/gcc_msp430_4.9.14r1_167/bin/../lib/gcc/msp430-elf/4.9.1/large\libgcc.a(_si_to_df.o)
 .text.__floatsidf
                0x0000d410       0xa8 c:/ti/ccsv6/tools/compiler/gcc_msp430_4.9.14r1_167/bin/../lib/gcc/msp430-elf/4.9.1/large\libgcc.a(_si_to_df.o)
                0x0000d410                __mspabi_fltlid
 .text          0x0000d4b8        0x0 c:/ti/ccsv6/tools/compiler/gcc_msp430_4.9.14r1_167/bin/../lib/gcc/msp430-elf/4.9.1/large\libgcc.a(_df_to_si.o)
 .text.__fixdfsi
                0x0000d4b8       0xa2 c:/ti/ccsv6/tools/compiler/gcc_msp430_4.9.14r1_167/bin/../lib/gcc/msp430-elf/4.9.1/large\libgcc.a(_df_to_si.o)
                0x0000d4b8                __mspabi_fixdli
 .text          0x0000d55a        0x0 c:/ti/ccsv6/tools/compiler/gcc_msp430_4.9.14r1_167/bin/../lib/gcc/msp430-elf/4.9.1/large\libgcc.a(_thenan_df.o)
 .text          0x0000d55a        0x0 c:/ti/ccsv6/tools/compiler/gcc_msp430_4.9.14r1_167/bin/../lib/gcc/msp430-elf/4.9.1/large\libgcc.a(_usi_to_df.o)
 .text.__floatunsidf
                0x0000d55a       0x6a c:/ti/ccsv6/tools/compiler/gcc_msp430_4.9.14r1_167/bin/../lib/gcc/msp430-elf/4.9.1/large\libgcc.a(_usi_to_df.o)
                0x0000d55a                __mspabi_fltuld
 .text          0x0000d5c4        0x0 c:/ti/ccsv6/tools/compiler/gcc_msp430_4.9.14r1_167/bin/../lib/gcc/msp430-elf/4.9.1/large\libgcc.a(lib2divHI.o)
 .text.udivmodhi4
                0x0000d5c4       0x40 c:/ti/ccsv6/tools/compiler/gcc_msp430_4.9.14r1_167/bin/../lib/gcc/msp430-elf/4.9.1/large\libgcc.a(lib2divHI.o)
                0x0000d5c4                udivmodhi4
 .text.__divhi3
                0x0000d604       0x50 c:/ti/ccsv6/tools/compiler/gcc_msp430_4.9.14r1_167/bin/../lib/gcc/msp430-elf/4.9.1/large\libgcc.a(lib2divHI.o)
                0x0000d604                __mspabi_divi
 .text.__modhi3
                0x0000d654       0x32 c:/ti/ccsv6/tools/compiler/gcc_msp430_4.9.14r1_167/bin/../lib/gcc/msp430-elf/4.9.1/large\libgcc.a(lib2divHI.o)
                0x0000d654                __mspabi_remi
 .text.__udivhi3
                0x0000d686        0x8 c:/ti/ccsv6/tools/compiler/gcc_msp430_4.9.14r1_167/bin/../lib/gcc/msp430-elf/4.9.1/large\libgcc.a(lib2divHI.o)
                0x0000d686                __mspabi_divu
 .text.__umodhi3
                0x0000d68e        0x8 c:/ti/ccsv6/tools/compiler/gcc_msp430_4.9.14r1_167/bin/../lib/gcc/msp430-elf/4.9.1/large\libgcc.a(lib2divHI.o)
                0x0000d68e                __mspabi_remu
 .text          0x0000d696        0x0 c:/ti/ccsv6/tools/compiler/gcc_msp430_4.9.14r1_167/bin/../lib/gcc/msp430-elf/4.9.1/large\libgcc.a(lib2divSI.o)
 .text.udivmodsi4
                0x0000d696       0x86 c:/ti/ccsv6/tools/compiler/gcc_msp430_4.9.14r1_167/bin/../lib/gcc/msp430-elf/4.9.1/large\libgcc.a(lib2divSI.o)
                0x0000d696                udivmodsi4
 .text.__divsi3
                0x0000d71c       0x8c c:/ti/ccsv6/tools/compiler/gcc_msp430_4.9.14r1_167/bin/../lib/gcc/msp430-elf/4.9.1/large\libgcc.a(lib2divSI.o)
                0x0000d71c                __mspabi_divli
 .text.__modsi3
                0x0000d7a8       0x68 c:/ti/ccsv6/tools/compiler/gcc_msp430_4.9.14r1_167/bin/../lib/gcc/msp430-elf/4.9.1/large\libgcc.a(lib2divSI.o)
                0x0000d7a8                __mspabi_remli
 .text.__udivsi3
                0x0000d810       0x12 c:/ti/ccsv6/tools/compiler/gcc_msp430_4.9.14r1_167/bin/../lib/gcc/msp430-elf/4.9.1/large\libgcc.a(lib2divSI.o)
                0x0000d810                __mspabi_divlu
 .text.__umodsi3
                0x0000d822       0x12 c:/ti/ccsv6/tools/compiler/gcc_msp430_4.9.14r1_167/bin/../lib/gcc/msp430-elf/4.9.1/large\libgcc.a(lib2divSI.o)
                0x0000d822                __mspabi_remul
 .text          0x0000d834       0x74 c:/ti/ccsv6/tools/compiler/gcc_msp430_4.9.14r1_167/bin/../lib/gcc/msp430-elf/4.9.1/large\libgcc.a(slli.o)
                0x0000d834                __mspabi_slli_15
                0x0000d836                __mspabi_slli_14
                0x0000d838                __mspabi_slli_13
                0x0000d83a                __mspabi_slli_12
                0x0000d83c                __mspabi_slli_11
                0x0000d83e                __mspabi_slli_10
                0x0000d840                __mspabi_slli_9
                0x0000d842                __mspabi_slli_8
                0x0000d844                __mspabi_slli_7
                0x0000d846                __mspabi_slli_6
                0x0000d848                __mspabi_slli_5
                0x0000d84a                __mspabi_slli_4
                0x0000d84c                __mspabi_slli_3
                0x0000d84e                __mspabi_slli_2
                0x0000d850                __mspabi_slli_1
                0x0000d858                __mspabi_slli
                0x0000d85e                __mspabi_slll_15
                0x0000d862                __mspabi_slll_14
                0x0000d866                __mspabi_slll_13
                0x0000d86a                __mspabi_slll_12
                0x0000d86e                __mspabi_slll_11
                0x0000d872                __mspabi_slll_10
                0x0000d876                __mspabi_slll_9
                0x0000d87a                __mspabi_slll_8
                0x0000d87e                __mspabi_slll_7
                0x0000d882                __mspabi_slll_6
                0x0000d886                __mspabi_slll_5
                0x0000d88a                __mspabi_slll_4
                0x0000d88e                __mspabi_slll_3
                0x0000d892                __mspabi_slll_2
                0x0000d896                __mspabi_slll_1
                0x0000d8a2                __mspabi_slll
 .text          0x0000d8a8       0x74 c:/ti/ccsv6/tools/compiler/gcc_msp430_4.9.14r1_167/bin/../lib/gcc/msp430-elf/4.9.1/large\libgcc.a(srai.o)
                0x0000d8a8                __mspabi_srai_15
                0x0000d8aa                __mspabi_srai_14
                0x0000d8ac                __mspabi_srai_13
                0x0000d8ae                __mspabi_srai_12
                0x0000d8b0                __mspabi_srai_11
                0x0000d8b2                __mspabi_srai_10
                0x0000d8b4                __mspabi_srai_9
                0x0000d8b6                __mspabi_srai_8
                0x0000d8b8                __mspabi_srai_7
                0x0000d8ba                __mspabi_srai_6
                0x0000d8bc                __mspabi_srai_5
                0x0000d8be                __mspabi_srai_4
                0x0000d8c0                __mspabi_srai_3
                0x0000d8c2                __mspabi_srai_2
                0x0000d8c4                __mspabi_srai_1
                0x0000d8cc                __mspabi_srai
                0x0000d8d2                __mspabi_sral_15
                0x0000d8d6                __mspabi_sral_14
                0x0000d8da                __mspabi_sral_13
                0x0000d8de                __mspabi_sral_12
                0x0000d8e2                __mspabi_sral_11
                0x0000d8e6                __mspabi_sral_10
                0x0000d8ea                __mspabi_sral_9
                0x0000d8ee                __mspabi_sral_8
                0x0000d8f2                __mspabi_sral_7
                0x0000d8f6                __mspabi_sral_6
                0x0000d8fa                __mspabi_sral_5
                0x0000d8fe                __mspabi_sral_4
                0x0000d902                __mspabi_sral_3
                0x0000d906                __mspabi_sral_2
                0x0000d90a                __mspabi_sral_1
                0x0000d916                __mspabi_sral
 .text          0x0000d91c       0xb4 c:/ti/ccsv6/tools/compiler/gcc_msp430_4.9.14r1_167/bin/../lib/gcc/msp430-elf/4.9.1/large\libgcc.a(srli.o)
                0x0000d91c                __mspabi_srli_15
                0x0000d920                __mspabi_srli_14
                0x0000d924                __mspabi_srli_13
                0x0000d928                __mspabi_srli_12
                0x0000d92c                __mspabi_srli_11
                0x0000d930                __mspabi_srli_10
                0x0000d934                __mspabi_srli_9
                0x0000d938                __mspabi_srli_8
                0x0000d93c                __mspabi_srli_7
                0x0000d940                __mspabi_srli_6
                0x0000d944                __mspabi_srli_5
                0x0000d948                __mspabi_srli_4
                0x0000d94c                __mspabi_srli_3
                0x0000d950                __mspabi_srli_2
                0x0000d954                __mspabi_srli_1
                0x0000d960                __mspabi_srli
                0x0000d966                __mspabi_srll_15
                0x0000d96c                __mspabi_srll_14
                0x0000d972                __mspabi_srll_13
                0x0000d978                __mspabi_srll_12
                0x0000d97e                __mspabi_srll_11
                0x0000d984                __mspabi_srll_10
                0x0000d98a                __mspabi_srll_9
                0x0000d990                __mspabi_srll_8
                0x0000d996                __mspabi_srll_7
                0x0000d99c                __mspabi_srll_6
                0x0000d9a2                __mspabi_srll_5
                0x0000d9a8                __mspabi_srll_4
                0x0000d9ae                __mspabi_srll_3
                0x0000d9b4                __mspabi_srll_2
                0x0000d9ba                __mspabi_srll_1
                0x0000d9ca                __mspabi_srll
 .text          0x0000d9d0        0x0 c:/ti/ccsv6/tools/compiler/gcc_msp430_4.9.14r1_167/bin/../lib/gcc/msp430-elf/4.9.1/large\libgcc.a(lib2hw_mul.o)
 .text.__mulhi2
                0x0000d9d0       0x18 c:/ti/ccsv6/tools/compiler/gcc_msp430_4.9.14r1_167/bin/../lib/gcc/msp430-elf/4.9.1/large\libgcc.a(lib2hw_mul.o)
                0x0000d9d0                __mulhi2
 .text.__mulsihi2
                0x0000d9e8       0x1c c:/ti/ccsv6/tools/compiler/gcc_msp430_4.9.14r1_167/bin/../lib/gcc/msp430-elf/4.9.1/large\libgcc.a(lib2hw_mul.o)
                0x0000d9e8                __mulsihi2
 .text.__umulsihi2
                0x0000da04       0x1c c:/ti/ccsv6/tools/compiler/gcc_msp430_4.9.14r1_167/bin/../lib/gcc/msp430-elf/4.9.1/large\libgcc.a(lib2hw_mul.o)
                0x0000da04                __umulsihi2
 .text.__mulsi2
                0x0000da20       0x30 c:/ti/ccsv6/tools/compiler/gcc_msp430_4.9.14r1_167/bin/../lib/gcc/msp430-elf/4.9.1/large\libgcc.a(lib2hw_mul.o)
                0x0000da20                __mulsi2
 .text.__mulsi2_hw32
                0x0000da50       0x24 c:/ti/ccsv6/tools/compiler/gcc_msp430_4.9.14r1_167/bin/../lib/gcc/msp430-elf/4.9.1/large\libgcc.a(lib2hw_mul.o)
                0x0000da50                __mulsi2_hw32
 .text.__muldisi2_hw32
                0x0000da74       0x2c c:/ti/ccsv6/tools/compiler/gcc_msp430_4.9.14r1_167/bin/../lib/gcc/msp430-elf/4.9.1/large\libgcc.a(lib2hw_mul.o)
                0x0000da74                __muldisi2_hw32
 .text.__umuldisi2_hw32
                0x0000daa0       0x2c c:/ti/ccsv6/tools/compiler/gcc_msp430_4.9.14r1_167/bin/../lib/gcc/msp430-elf/4.9.1/large\libgcc.a(lib2hw_mul.o)
                0x0000daa0                __umuldisi2_hw32
 .text.__mulhi2_f5
                0x0000dacc       0x18 c:/ti/ccsv6/tools/compiler/gcc_msp430_4.9.14r1_167/bin/../lib/gcc/msp430-elf/4.9.1/large\libgcc.a(lib2hw_mul.o)
                0x0000dacc                __mulhi2_f5
 .text.__mulsihi2_f5
                0x0000dae4       0x1c c:/ti/ccsv6/tools/compiler/gcc_msp430_4.9.14r1_167/bin/../lib/gcc/msp430-elf/4.9.1/large\libgcc.a(lib2hw_mul.o)
                0x0000dae4                __mulsihi2_f5
 .text.__umulsihi2_f5
                0x0000db00       0x1c c:/ti/ccsv6/tools/compiler/gcc_msp430_4.9.14r1_167/bin/../lib/gcc/msp430-elf/4.9.1/large\libgcc.a(lib2hw_mul.o)
                0x0000db00                __umulsihi2_f5
 .text.__mulsi2_f5
                0x0000db1c       0x24 c:/ti/ccsv6/tools/compiler/gcc_msp430_4.9.14r1_167/bin/../lib/gcc/msp430-elf/4.9.1/large\libgcc.a(lib2hw_mul.o)
                0x0000db1c                __mulsi2_f5
 .text.__muldisi2_f5
                0x0000db40       0x2c c:/ti/ccsv6/tools/compiler/gcc_msp430_4.9.14r1_167/bin/../lib/gcc/msp430-elf/4.9.1/large\libgcc.a(lib2hw_mul.o)
                0x0000db40                __muldisi2_f5
 .text.__umuldisi2_f5
                0x0000db6c       0x2c c:/ti/ccsv6/tools/compiler/gcc_msp430_4.9.14r1_167/bin/../lib/gcc/msp430-elf/4.9.1/large\libgcc.a(lib2hw_mul.o)
                0x0000db6c                __umuldisi2_f5
 .text          0x0000db98        0x0 c:/ti/ccsv6/tools/compiler/gcc_msp430_4.9.14r1_167/bin/../lib/gcc/msp430-elf/4.9.1/large\libgcc.a(_muldi3.o)
 .text.__muldi3
                0x0000db98      0x14a c:/ti/ccsv6/tools/compiler/gcc_msp430_4.9.14r1_167/bin/../lib/gcc/msp430-elf/4.9.1/large\libgcc.a(_muldi3.o)
                0x0000db98                __mspabi_mpyll
 .text          0x0000dce2        0x0 c:/ti/ccsv6/tools/compiler/gcc_msp430_4.9.14r1_167/bin/../lib/gcc/msp430-elf/4.9.1/large\libgcc.a(_lshrdi3.o)
 .text.__lshrdi3
                0x0000dce2       0x8a c:/ti/ccsv6/tools/compiler/gcc_msp430_4.9.14r1_167/bin/../lib/gcc/msp430-elf/4.9.1/large\libgcc.a(_lshrdi3.o)
                0x0000dce2                __lshrdi3
 .text          0x0000dd6c        0x0 c:/ti/ccsv6/tools/compiler/gcc_msp430_4.9.14r1_167/bin/../lib/gcc/msp430-elf/4.9.1/large\libgcc.a(_ashldi3.o)
 .text.__ashldi3
                0x0000dd6c       0x82 c:/ti/ccsv6/tools/compiler/gcc_msp430_4.9.14r1_167/bin/../lib/gcc/msp430-elf/4.9.1/large\libgcc.a(_ashldi3.o)
                0x0000dd6c                __ashldi3
 .text          0x0000ddee        0x0 c:/ti/ccsv6/tools/compiler/gcc_msp430_4.9.14r1_167/bin/../lib/gcc/msp430-elf/4.9.1/large\libgcc.a(_clzsi2.o)
 .text.__clzsi2
                0x0000ddee       0x54 c:/ti/ccsv6/tools/compiler/gcc_msp430_4.9.14r1_167/bin/../lib/gcc/msp430-elf/4.9.1/large\libgcc.a(_clzsi2.o)
                0x0000ddee                __clzsi2
 .text          0x0000de42        0x0 c:/ti/ccsv6/tools/compiler/gcc_msp430_4.9.14r1_167/bin/../lib/gcc/msp430-elf/4.9.1/large\libgcc.a(_pack_df.o)
 .text.__pack_d
                0x0000de42      0x2a8 c:/ti/ccsv6/tools/compiler/gcc_msp430_4.9.14r1_167/bin/../lib/gcc/msp430-elf/4.9.1/large\libgcc.a(_pack_df.o)
                0x0000de42                __pack_d
 .text          0x0000e0ea        0x0 c:/ti/ccsv6/tools/compiler/gcc_msp430_4.9.14r1_167/bin/../lib/gcc/msp430-elf/4.9.1/large\libgcc.a(_unpack_df.o)
 .text.__unpack_d
                0x0000e0ea      0x168 c:/ti/ccsv6/tools/compiler/gcc_msp430_4.9.14r1_167/bin/../lib/gcc/msp430-elf/4.9.1/large\libgcc.a(_unpack_df.o)
                0x0000e0ea                __unpack_d
 .text          0x0000e252        0x0 c:/ti/ccsv6/tools/compiler/gcc_msp430_4.9.14r1_167/bin/../lib/gcc/msp430-elf/4.9.1/large\libgcc.a(_fpcmp_parts_df.o)
 .text.__fpcmp_parts_d
                0x0000e252       0xe2 c:/ti/ccsv6/tools/compiler/gcc_msp430_4.9.14r1_167/bin/../lib/gcc/msp430-elf/4.9.1/large\libgcc.a(_fpcmp_parts_df.o)
                0x0000e252                __fpcmp_parts_d
 .text          0x0000e334        0x0 c:/ti/ccsv6/tools/compiler/gcc_msp430_4.9.14r1_167/bin/../lib/gcc/msp430-elf/4.9.1/large\libgcc.a(lib2mul.o)
 .text.__mulhi3
                0x0000e334       0x2a c:/ti/ccsv6/tools/compiler/gcc_msp430_4.9.14r1_167/bin/../lib/gcc/msp430-elf/4.9.1/large\libgcc.a(lib2mul.o)
                0x0000e334                __mspabi_mpyi
 .text.__mulqi3
                0x0000e35e       0x36 c:/ti/ccsv6/tools/compiler/gcc_msp430_4.9.14r1_167/bin/../lib/gcc/msp430-elf/4.9.1/large\libgcc.a(lib2mul.o)
                0x0000e35e                __mulqi3
 .text.__mulsi3
                0x0000e394       0x4a c:/ti/ccsv6/tools/compiler/gcc_msp430_4.9.14r1_167/bin/../lib/gcc/msp430-elf/4.9.1/large\libgcc.a(lib2mul.o)
                0x0000e394                __mspabi_mpyl
 .text          0x0000e3de        0x0 c:/ti/ccsv6/tools/compiler/gcc_msp430_4.9.14r1_167/bin/../lib/gcc/msp430-elf/4.9.1/large\libgcc.a(_clz.o)
 .text          0x0000e3de        0x0 c:/ti/ccsv6/tools/compiler/gcc_msp430_4.9.14r1_167/bin/../lib/gcc/msp430-elf/4.9.1/../../../../msp430-elf/lib/large\libcrt.a(crt_bss.o)
 .text          0x0000e3de        0x0 c:/ti/ccsv6/tools/compiler/gcc_msp430_4.9.14r1_167/bin/../lib/gcc/msp430-elf/4.9.1/../../../../msp430-elf/lib/large\libcrt.a(crt_movedata.o)
 .text          0x0000e3de        0x0 c:/ti/ccsv6/tools/compiler/gcc_msp430_4.9.14r1_167/bin/../lib/gcc/msp430-elf/4.9.1/../../../../msp430-elf/lib/large\libcrt.a(crt_main.o)
 .text          0x0000e3de       0x40 c:/ti/ccsv6/tools/compiler/gcc_msp430_4.9.14r1_167/bin/../lib/gcc/msp430-elf/4.9.1/../../../../msp430-elf/lib/large\libnosys.a(sbrk.o)
                0x0000e3de                sbrk
                0x0000e3de                _sbrk
 .text          0x0000e41e       0x98 c:/ti/ccsv6/tools/compiler/gcc_msp430_4.9.14r1_167/bin/../lib/gcc/msp430-elf/4.9.1/../../../../msp430-elf/lib/large\libnosys.a(write.o)
                0x0000e41e                write
 .text          0x0000e4b6        0x4 c:/ti/ccsv6/tools/compiler/gcc_msp430_4.9.14r1_167/bin/../lib/gcc/msp430-elf/4.9.1/../../../../msp430-elf/lib/large\libnosys.a(cio.o)
                0x0000e4b6                _libgloss_cio_hook
                0x0000e4b6                C$$IO$$
 .text          0x0000e4ba        0x0 c:/ti/ccsv6/tools/compiler/gcc_msp430_4.9.14r1_167/bin/../lib/gcc/msp430-elf/4.9.1/../../../../msp430-elf/lib/large\libc.a(lib_a-abort.o)
 .text.abort    0x0000e4ba        0xe c:/ti/ccsv6/tools/compiler/gcc_msp430_4.9.14r1_167/bin/../lib/gcc/msp430-elf/4.9.1/../../../../msp430-elf/lib/large\libc.a(lib_a-abort.o)
                0x0000e4ba                abort
 .text          0x0000e4c8        0x0 c:/ti/ccsv6/tools/compiler/gcc_msp430_4.9.14r1_167/bin/../lib/gcc/msp430-elf/4.9.1/../../../../msp430-elf/lib/large\libc.a(lib_a-signal.o)
 .text._init_signal_r
                0x0000e4c8       0x48 c:/ti/ccsv6/tools/compiler/gcc_msp430_4.9.14r1_167/bin/../lib/gcc/msp430-elf/4.9.1/../../../../msp430-elf/lib/large\libc.a(lib_a-signal.o)
                0x0000e4c8                _init_signal_r
 .text._signal_r
                0x0000e510       0x6c c:/ti/ccsv6/tools/compiler/gcc_msp430_4.9.14r1_167/bin/../lib/gcc/msp430-elf/4.9.1/../../../../msp430-elf/lib/large\libc.a(lib_a-signal.o)
                0x0000e510                _signal_r
 .text._raise_r
                0x0000e57c       0x8c c:/ti/ccsv6/tools/compiler/gcc_msp430_4.9.14r1_167/bin/../lib/gcc/msp430-elf/4.9.1/../../../../msp430-elf/lib/large\libc.a(lib_a-signal.o)
                0x0000e57c                _raise_r
 .text.__sigtramp_r
                0x0000e608       0x88 c:/ti/ccsv6/tools/compiler/gcc_msp430_4.9.14r1_167/bin/../lib/gcc/msp430-elf/4.9.1/../../../../msp430-elf/lib/large\libc.a(lib_a-signal.o)
                0x0000e608                __sigtramp_r
 .text.raise    0x0000e690        0xc c:/ti/ccsv6/tools/compiler/gcc_msp430_4.9.14r1_167/bin/../lib/gcc/msp430-elf/4.9.1/../../../../msp430-elf/lib/large\libc.a(lib_a-signal.o)
                0x0000e690                raise
 .text.signal   0x0000e69c       0x10 c:/ti/ccsv6/tools/compiler/gcc_msp430_4.9.14r1_167/bin/../lib/gcc/msp430-elf/4.9.1/../../../../msp430-elf/lib/large\libc.a(lib_a-signal.o)
                0x0000e69c                signal
 .text._init_signal
                0x0000e6ac        0xa c:/ti/ccsv6/tools/compiler/gcc_msp430_4.9.14r1_167/bin/../lib/gcc/msp430-elf/4.9.1/../../../../msp430-elf/lib/large\libc.a(lib_a-signal.o)
                0x0000e6ac                _init_signal
 .text.__sigtramp
                0x0000e6b6        0xc c:/ti/ccsv6/tools/compiler/gcc_msp430_4.9.14r1_167/bin/../lib/gcc/msp430-elf/4.9.1/../../../../msp430-elf/lib/large\libc.a(lib_a-signal.o)
                0x0000e6b6                __sigtramp
 .text          0x0000e6c2        0x0 c:/ti/ccsv6/tools/compiler/gcc_msp430_4.9.14r1_167/bin/../lib/gcc/msp430-elf/4.9.1/../../../../msp430-elf/lib/large\libc.a(lib_a-signalr.o)
 .text._kill_r  0x0000e6c2       0x28 c:/ti/ccsv6/tools/compiler/gcc_msp430_4.9.14r1_167/bin/../lib/gcc/msp430-elf/4.9.1/../../../../msp430-elf/lib/large\libc.a(lib_a-signalr.o)
                0x0000e6c2                _kill_r
 .text._getpid_r
                0x0000e6ea        0x6 c:/ti/ccsv6/tools/compiler/gcc_msp430_4.9.14r1_167/bin/../lib/gcc/msp430-elf/4.9.1/../../../../msp430-elf/lib/large\libc.a(lib_a-signalr.o)
                0x0000e6ea                _getpid_r
 .text          0x0000e6f0       0x6e c:/ti/ccsv6/tools/compiler/gcc_msp430_4.9.14r1_167/bin/../lib/gcc/msp430-elf/4.9.1/../../../../msp430-elf/lib/large\libnosys.a(nosyscalls.o)
                0x0000e6f0                exit
                0x0000e6f0                _exit
                0x0000e6f4                open
                0x0000e704                close
                0x0000e714                read
                0x0000e724                fstat
                0x0000e734                lseek
                0x0000e744                kill
                0x0000e754                isatty
                0x0000e754                _isatty
                0x0000e758                getpid
 .text          0x0000e75e        0x0 c:/ti/ccsv6/tools/compiler/gcc_msp430_4.9.14r1_167/bin/../lib/gcc/msp430-elf/4.9.1/../../../../msp430-elf/lib/large\libc.a(lib_a-errno.o)
 .text.__errno  0x0000e75e        0x6 c:/ti/ccsv6/tools/compiler/gcc_msp430_4.9.14r1_167/bin/../lib/gcc/msp430-elf/4.9.1/../../../../msp430-elf/lib/large\libc.a(lib_a-errno.o)
                0x0000e75e                __errno
 .text          0x0000e764       0x24 c:/ti/ccsv6/tools/compiler/gcc_msp430_4.9.14r1_167/bin/../lib/gcc/msp430-elf/4.9.1/large/crtend.o
 .text          0x0000e788        0x0 c:/ti/ccsv6/tools/compiler/gcc_msp430_4.9.14r1_167/bin/../lib/gcc/msp430-elf/4.9.1/../../../../msp430-elf/lib/large/crtn.o
 *(.text.*personality*)
 *(.gnu.warning)
 *(.interp .hash .dynsym .dynstr .gnu.version*)
                0x0000e788                PROVIDE (__etext, .)
                0x0000e788                PROVIDE (_etext, .)
                0x0000e788                PROVIDE (etext, .)
                0x0000e788                . = ALIGN (0x2)
 *(.init)
 .init          0x0000e788        0x0 c:/ti/ccsv6/tools/compiler/gcc_msp430_4.9.14r1_167/bin/../lib/gcc/msp430-elf/4.9.1/../../../../msp430-elf/lib/large/crt0.o
                0x0000e788                __msp430_init
 .init          0x0000e788        0x4 c:/ti/ccsv6/tools/compiler/gcc_msp430_4.9.14r1_167/bin/../lib/gcc/msp430-elf/4.9.1/large/crtbegin.o
 .init          0x0000e78c        0x4 c:/ti/ccsv6/tools/compiler/gcc_msp430_4.9.14r1_167/bin/../lib/gcc/msp430-elf/4.9.1/large/crtend.o
 .init          0x0000e790        0xa c:/ti/ccsv6/tools/compiler/gcc_msp430_4.9.14r1_167/bin/../lib/gcc/msp430-elf/4.9.1/../../../../msp430-elf/lib/large/crtn.o
                0x0000e79a                __msp430_init_end
 *(.fini)
 .fini          0x0000e79a        0x4 c:/ti/ccsv6/tools/compiler/gcc_msp430_4.9.14r1_167/bin/../lib/gcc/msp430-elf/4.9.1/../../../../msp430-elf/lib/large/crt0.o
                0x0000e79a                __msp430_fini
 .fini          0x0000e79e        0x4 c:/ti/ccsv6/tools/compiler/gcc_msp430_4.9.14r1_167/bin/../lib/gcc/msp430-elf/4.9.1/large/crtbegin.o
 .fini          0x0000e7a2        0x2 c:/ti/ccsv6/tools/compiler/gcc_msp430_4.9.14r1_167/bin/../lib/gcc/msp430-elf/4.9.1/../../../../msp430-elf/lib/large/crtn.o
                0x0000e7a4                __msp430_fini_end
 *(.tm_clone_table)
 .tm_clone_table
                0x0000e7a4        0x0 c:/ti/ccsv6/tools/compiler/gcc_msp430_4.9.14r1_167/bin/../lib/gcc/msp430-elf/4.9.1/large/crtbegin.o
 .tm_clone_table
                0x0000e7a4        0x0 c:/ti/ccsv6/tools/compiler/gcc_msp430_4.9.14r1_167/bin/../lib/gcc/msp430-elf/4.9.1/large/crtend.o
                0x0000e7a4                __TMC_END__

.upper.text     0x00010000        0x0
                0x00010000                . = ALIGN (0x2)
 *(.upper.text.* .upper.text)

.infoA

.infoB

.infoC

.infoD

.upper          0x00001de4        0x0
 *(.upper.bss.* .upper.bss)
 *(.upper.data.* .upper.data)
                0x00000001                ASSERT ((SIZEOF (.upper) == 0x0), This MCU does not support placing read/write data into high memory)

.MP430.attributes
                0x00000000      0x5d7
 *(.MSP430.attributes)
 .MSP430.attributes
                0x00000000       0x17 c:/ti/ccsv6/tools/compiler/gcc_msp430_4.9.14r1_167/bin/../lib/gcc/msp430-elf/4.9.1/../../../../msp430-elf/lib/large/crt0.o
 .MSP430.attributes
                0x00000017       0x17 c:/ti/ccsv6/tools/compiler/gcc_msp430_4.9.14r1_167/bin/../lib/gcc/msp430-elf/4.9.1/large/crtbegin.o
 .MSP430.attributes
                0x0000002e       0x17 ./main.o
 .MSP430.attributes
                0x00000045       0x17 c:/ti/ccsv6/tools/compiler/gcc_msp430_4.9.14r1_167/bin/../lib/gcc/msp430-elf/4.9.1/../../../../msp430-elf/lib/large\libc.a(lib_a-memset.o)
 .MSP430.attributes
                0x0000005c       0x17 c:/ti/ccsv6/tools/compiler/gcc_msp430_4.9.14r1_167/bin/../lib/gcc/msp430-elf/4.9.1/../../../../msp430-elf/lib/large\libc.a(lib_a-sprintf.o)
 .MSP430.attributes
                0x00000073       0x17 c:/ti/ccsv6/tools/compiler/gcc_msp430_4.9.14r1_167/bin/../lib/gcc/msp430-elf/4.9.1/../../../../msp430-elf/lib/large\libc.a(lib_a-svfprintf.o)
 .MSP430.attributes
                0x0000008a       0x17 c:/ti/ccsv6/tools/compiler/gcc_msp430_4.9.14r1_167/bin/../lib/gcc/msp430-elf/4.9.1/../../../../msp430-elf/lib/large\libc.a(lib_a-dtoa.o)
 .MSP430.attributes
                0x000000a1       0x17 c:/ti/ccsv6/tools/compiler/gcc_msp430_4.9.14r1_167/bin/../lib/gcc/msp430-elf/4.9.1/../../../../msp430-elf/lib/large\libc.a(lib_a-impure.o)
 .MSP430.attributes
                0x000000b8       0x17 c:/ti/ccsv6/tools/compiler/gcc_msp430_4.9.14r1_167/bin/../lib/gcc/msp430-elf/4.9.1/../../../../msp430-elf/lib/large\libc.a(lib_a-locale.o)
 .MSP430.attributes
                0x000000cf       0x17 c:/ti/ccsv6/tools/compiler/gcc_msp430_4.9.14r1_167/bin/../lib/gcc/msp430-elf/4.9.1/../../../../msp430-elf/lib/large\libc.a(lib_a-malloc.o)
 .MSP430.attributes
                0x000000e6       0x17 c:/ti/ccsv6/tools/compiler/gcc_msp430_4.9.14r1_167/bin/../lib/gcc/msp430-elf/4.9.1/../../../../msp430-elf/lib/large\libc.a(lib_a-memchr.o)
 .MSP430.attributes
                0x000000fd       0x17 c:/ti/ccsv6/tools/compiler/gcc_msp430_4.9.14r1_167/bin/../lib/gcc/msp430-elf/4.9.1/../../../../msp430-elf/lib/large\libc.a(lib_a-memcpy.o)
 .MSP430.attributes
                0x00000114       0x17 c:/ti/ccsv6/tools/compiler/gcc_msp430_4.9.14r1_167/bin/../lib/gcc/msp430-elf/4.9.1/../../../../msp430-elf/lib/large\libc.a(lib_a-mprec.o)
 .MSP430.attributes
                0x0000012b       0x17 c:/ti/ccsv6/tools/compiler/gcc_msp430_4.9.14r1_167/bin/../lib/gcc/msp430-elf/4.9.1/../../../../msp430-elf/lib/large\libc.a(lib_a-nano-callocr.o)
 .MSP430.attributes
                0x00000142       0x17 c:/ti/ccsv6/tools/compiler/gcc_msp430_4.9.14r1_167/bin/../lib/gcc/msp430-elf/4.9.1/../../../../msp430-elf/lib/large\libc.a(lib_a-nano-freer.o)
 .MSP430.attributes
                0x00000159       0x17 c:/ti/ccsv6/tools/compiler/gcc_msp430_4.9.14r1_167/bin/../lib/gcc/msp430-elf/4.9.1/../../../../msp430-elf/lib/large\libc.a(lib_a-nano-mallocr.o)
 .MSP430.attributes
                0x00000170       0x17 c:/ti/ccsv6/tools/compiler/gcc_msp430_4.9.14r1_167/bin/../lib/gcc/msp430-elf/4.9.1/../../../../msp430-elf/lib/large\libc.a(lib_a-s_fpclassify.o)
 .MSP430.attributes
                0x00000187       0x17 c:/ti/ccsv6/tools/compiler/gcc_msp430_4.9.14r1_167/bin/../lib/gcc/msp430-elf/4.9.1/../../../../msp430-elf/lib/large\libc.a(lib_a-sbrkr.o)
 .MSP430.attributes
                0x0000019e       0x17 c:/ti/ccsv6/tools/compiler/gcc_msp430_4.9.14r1_167/bin/../lib/gcc/msp430-elf/4.9.1/../../../../msp430-elf/lib/large\libc.a(lib_a-strcmp.o)
 .MSP430.attributes
                0x000001b5       0x17 c:/ti/ccsv6/tools/compiler/gcc_msp430_4.9.14r1_167/bin/../lib/gcc/msp430-elf/4.9.1/../../../../msp430-elf/lib/large\libc.a(lib_a-strlen.o)
 .MSP430.attributes
                0x000001cc       0x17 c:/ti/ccsv6/tools/compiler/gcc_msp430_4.9.14r1_167/bin/../lib/gcc/msp430-elf/4.9.1/../../../../msp430-elf/lib/large\libc.a(lib_a-svfiprintf.o)
 .MSP430.attributes
                0x000001e3       0x17 c:/ti/ccsv6/tools/compiler/gcc_msp430_4.9.14r1_167/bin/../lib/gcc/msp430-elf/4.9.1/../../../../msp430-elf/lib/large\libc.a(lib_a-memmove.o)
 .MSP430.attributes
                0x000001fa       0x17 c:/ti/ccsv6/tools/compiler/gcc_msp430_4.9.14r1_167/bin/../lib/gcc/msp430-elf/4.9.1/../../../../msp430-elf/lib/large\libc.a(lib_a-nano-reallocr.o)
 .MSP430.attributes
                0x00000211       0x17 c:/ti/ccsv6/tools/compiler/gcc_msp430_4.9.14r1_167/bin/../lib/gcc/msp430-elf/4.9.1/../../../../msp430-elf/lib/large\libc.a(lib_a-reent.o)
 .MSP430.attributes
                0x00000228       0x17 c:/ti/ccsv6/tools/compiler/gcc_msp430_4.9.14r1_167/bin/../lib/gcc/msp430-elf/4.9.1/../../../../msp430-elf/lib/large\libc.a(lib_a-nano-msizer.o)
 .MSP430.attributes
                0x0000023f       0x17 c:/ti/ccsv6/tools/compiler/gcc_msp430_4.9.14r1_167/bin/../lib/gcc/msp430-elf/4.9.1/large\libgcc.a(_addsub_df.o)
 .MSP430.attributes
                0x00000256       0x17 c:/ti/ccsv6/tools/compiler/gcc_msp430_4.9.14r1_167/bin/../lib/gcc/msp430-elf/4.9.1/large\libgcc.a(_mul_df.o)
 .MSP430.attributes
                0x0000026d       0x17 c:/ti/ccsv6/tools/compiler/gcc_msp430_4.9.14r1_167/bin/../lib/gcc/msp430-elf/4.9.1/large\libgcc.a(_div_df.o)
 .MSP430.attributes
                0x00000284       0x17 c:/ti/ccsv6/tools/compiler/gcc_msp430_4.9.14r1_167/bin/../lib/gcc/msp430-elf/4.9.1/large\libgcc.a(_eq_df.o)
 .MSP430.attributes
                0x0000029b       0x17 c:/ti/ccsv6/tools/compiler/gcc_msp430_4.9.14r1_167/bin/../lib/gcc/msp430-elf/4.9.1/large\libgcc.a(_ne_df.o)
 .MSP430.attributes
                0x000002b2       0x17 c:/ti/ccsv6/tools/compiler/gcc_msp430_4.9.14r1_167/bin/../lib/gcc/msp430-elf/4.9.1/large\libgcc.a(_gt_df.o)
 .MSP430.attributes
                0x000002c9       0x17 c:/ti/ccsv6/tools/compiler/gcc_msp430_4.9.14r1_167/bin/../lib/gcc/msp430-elf/4.9.1/large\libgcc.a(_ge_df.o)
 .MSP430.attributes
                0x000002e0       0x17 c:/ti/ccsv6/tools/compiler/gcc_msp430_4.9.14r1_167/bin/../lib/gcc/msp430-elf/4.9.1/large\libgcc.a(_lt_df.o)
 .MSP430.attributes
                0x000002f7       0x17 c:/ti/ccsv6/tools/compiler/gcc_msp430_4.9.14r1_167/bin/../lib/gcc/msp430-elf/4.9.1/large\libgcc.a(_si_to_df.o)
 .MSP430.attributes
                0x0000030e       0x17 c:/ti/ccsv6/tools/compiler/gcc_msp430_4.9.14r1_167/bin/../lib/gcc/msp430-elf/4.9.1/large\libgcc.a(_df_to_si.o)
 .MSP430.attributes
                0x00000325       0x17 c:/ti/ccsv6/tools/compiler/gcc_msp430_4.9.14r1_167/bin/../lib/gcc/msp430-elf/4.9.1/large\libgcc.a(_thenan_df.o)
 .MSP430.attributes
                0x0000033c       0x17 c:/ti/ccsv6/tools/compiler/gcc_msp430_4.9.14r1_167/bin/../lib/gcc/msp430-elf/4.9.1/large\libgcc.a(_usi_to_df.o)
 .MSP430.attributes
                0x00000353       0x17 c:/ti/ccsv6/tools/compiler/gcc_msp430_4.9.14r1_167/bin/../lib/gcc/msp430-elf/4.9.1/large\libgcc.a(lib2divHI.o)
 .MSP430.attributes
                0x0000036a       0x17 c:/ti/ccsv6/tools/compiler/gcc_msp430_4.9.14r1_167/bin/../lib/gcc/msp430-elf/4.9.1/large\libgcc.a(lib2divSI.o)
 .MSP430.attributes
                0x00000381       0x17 c:/ti/ccsv6/tools/compiler/gcc_msp430_4.9.14r1_167/bin/../lib/gcc/msp430-elf/4.9.1/large\libgcc.a(slli.o)
 .MSP430.attributes
                0x00000398       0x17 c:/ti/ccsv6/tools/compiler/gcc_msp430_4.9.14r1_167/bin/../lib/gcc/msp430-elf/4.9.1/large\libgcc.a(srai.o)
 .MSP430.attributes
                0x000003af       0x17 c:/ti/ccsv6/tools/compiler/gcc_msp430_4.9.14r1_167/bin/../lib/gcc/msp430-elf/4.9.1/large\libgcc.a(srli.o)
 .MSP430.attributes
                0x000003c6       0x17 c:/ti/ccsv6/tools/compiler/gcc_msp430_4.9.14r1_167/bin/../lib/gcc/msp430-elf/4.9.1/large\libgcc.a(lib2hw_mul.o)
 .MSP430.attributes
                0x000003dd       0x17 c:/ti/ccsv6/tools/compiler/gcc_msp430_4.9.14r1_167/bin/../lib/gcc/msp430-elf/4.9.1/large\libgcc.a(_muldi3.o)
 .MSP430.attributes
                0x000003f4       0x17 c:/ti/ccsv6/tools/compiler/gcc_msp430_4.9.14r1_167/bin/../lib/gcc/msp430-elf/4.9.1/large\libgcc.a(_lshrdi3.o)
 .MSP430.attributes
                0x0000040b       0x17 c:/ti/ccsv6/tools/compiler/gcc_msp430_4.9.14r1_167/bin/../lib/gcc/msp430-elf/4.9.1/large\libgcc.a(_ashldi3.o)
 .MSP430.attributes
                0x00000422       0x17 c:/ti/ccsv6/tools/compiler/gcc_msp430_4.9.14r1_167/bin/../lib/gcc/msp430-elf/4.9.1/large\libgcc.a(_clzsi2.o)
 .MSP430.attributes
                0x00000439       0x17 c:/ti/ccsv6/tools/compiler/gcc_msp430_4.9.14r1_167/bin/../lib/gcc/msp430-elf/4.9.1/large\libgcc.a(_pack_df.o)
 .MSP430.attributes
                0x00000450       0x17 c:/ti/ccsv6/tools/compiler/gcc_msp430_4.9.14r1_167/bin/../lib/gcc/msp430-elf/4.9.1/large\libgcc.a(_unpack_df.o)
 .MSP430.attributes
                0x00000467       0x17 c:/ti/ccsv6/tools/compiler/gcc_msp430_4.9.14r1_167/bin/../lib/gcc/msp430-elf/4.9.1/large\libgcc.a(_fpcmp_parts_df.o)
 .MSP430.attributes
                0x0000047e       0x17 c:/ti/ccsv6/tools/compiler/gcc_msp430_4.9.14r1_167/bin/../lib/gcc/msp430-elf/4.9.1/large\libgcc.a(lib2mul.o)
 .MSP430.attributes
                0x00000495       0x17 c:/ti/ccsv6/tools/compiler/gcc_msp430_4.9.14r1_167/bin/../lib/gcc/msp430-elf/4.9.1/large\libgcc.a(_clz.o)
 .MSP430.attributes
                0x000004ac       0x17 c:/ti/ccsv6/tools/compiler/gcc_msp430_4.9.14r1_167/bin/../lib/gcc/msp430-elf/4.9.1/../../../../msp430-elf/lib/large\libcrt.a(crt_bss.o)
 .MSP430.attributes
                0x000004c3       0x17 c:/ti/ccsv6/tools/compiler/gcc_msp430_4.9.14r1_167/bin/../lib/gcc/msp430-elf/4.9.1/../../../../msp430-elf/lib/large\libcrt.a(crt_movedata.o)
 .MSP430.attributes
                0x000004da       0x17 c:/ti/ccsv6/tools/compiler/gcc_msp430_4.9.14r1_167/bin/../lib/gcc/msp430-elf/4.9.1/../../../../msp430-elf/lib/large\libcrt.a(crt_main.o)
 .MSP430.attributes
                0x000004f1       0x17 c:/ti/ccsv6/tools/compiler/gcc_msp430_4.9.14r1_167/bin/../lib/gcc/msp430-elf/4.9.1/../../../../msp430-elf/lib/large\libnosys.a(sbrk.o)
 .MSP430.attributes
                0x00000508       0x17 c:/ti/ccsv6/tools/compiler/gcc_msp430_4.9.14r1_167/bin/../lib/gcc/msp430-elf/4.9.1/../../../../msp430-elf/lib/large\libnosys.a(write.o)
 .MSP430.attributes
                0x0000051f       0x17 c:/ti/ccsv6/tools/compiler/gcc_msp430_4.9.14r1_167/bin/../lib/gcc/msp430-elf/4.9.1/../../../../msp430-elf/lib/large\libnosys.a(cio.o)
 .MSP430.attributes
                0x00000536       0x17 c:/ti/ccsv6/tools/compiler/gcc_msp430_4.9.14r1_167/bin/../lib/gcc/msp430-elf/4.9.1/../../../../msp430-elf/lib/large\libc.a(lib_a-abort.o)
 .MSP430.attributes
                0x0000054d       0x17 c:/ti/ccsv6/tools/compiler/gcc_msp430_4.9.14r1_167/bin/../lib/gcc/msp430-elf/4.9.1/../../../../msp430-elf/lib/large\libc.a(lib_a-signal.o)
 .MSP430.attributes
                0x00000564       0x17 c:/ti/ccsv6/tools/compiler/gcc_msp430_4.9.14r1_167/bin/../lib/gcc/msp430-elf/4.9.1/../../../../msp430-elf/lib/large\libc.a(lib_a-signalr.o)
 .MSP430.attributes
                0x0000057b       0x17 c:/ti/ccsv6/tools/compiler/gcc_msp430_4.9.14r1_167/bin/../lib/gcc/msp430-elf/4.9.1/../../../../msp430-elf/lib/large\libnosys.a(nosyscalls.o)
 .MSP430.attributes
                0x00000592       0x17 c:/ti/ccsv6/tools/compiler/gcc_msp430_4.9.14r1_167/bin/../lib/gcc/msp430-elf/4.9.1/../../../../msp430-elf/lib/large\libc.a(lib_a-errno.o)
 .MSP430.attributes
                0x000005a9       0x17 c:/ti/ccsv6/tools/compiler/gcc_msp430_4.9.14r1_167/bin/../lib/gcc/msp430-elf/4.9.1/large/crtend.o
 .MSP430.attributes
                0x000005c0       0x17 c:/ti/ccsv6/tools/compiler/gcc_msp430_4.9.14r1_167/bin/../lib/gcc/msp430-elf/4.9.1/../../../../msp430-elf/lib/large/crtn.o
 *(.gnu.attributes)
 *(__TI_build_attributes)

.stab
 *(.stab)

.stabstr
 *(.stabstr)

.stab.excl
 *(.stab.excl)

.stab.exclstr
 *(.stab.exclstr)

.stab.index
 *(.stab.index)

.stab.indexstr
 *(.stab.indexstr)

.comment        0x00000000       0x7c
 *(.comment)
 .comment       0x00000000       0x7c c:/ti/ccsv6/tools/compiler/gcc_msp430_4.9.14r1_167/bin/../lib/gcc/msp430-elf/4.9.1/large/crtbegin.o
                                 0x7d (size before relaxing)
 .comment       0x00000000       0x7d ./main.o
 .comment       0x00000000       0x7d c:/ti/ccsv6/tools/compiler/gcc_msp430_4.9.14r1_167/bin/../lib/gcc/msp430-elf/4.9.1/../../../../msp430-elf/lib/large\libc.a(lib_a-memset.o)
 .comment       0x00000000       0x7d c:/ti/ccsv6/tools/compiler/gcc_msp430_4.9.14r1_167/bin/../lib/gcc/msp430-elf/4.9.1/../../../../msp430-elf/lib/large\libc.a(lib_a-sprintf.o)
 .comment       0x00000000       0x7d c:/ti/ccsv6/tools/compiler/gcc_msp430_4.9.14r1_167/bin/../lib/gcc/msp430-elf/4.9.1/../../../../msp430-elf/lib/large\libc.a(lib_a-svfprintf.o)
 .comment       0x00000000       0x7d c:/ti/ccsv6/tools/compiler/gcc_msp430_4.9.14r1_167/bin/../lib/gcc/msp430-elf/4.9.1/../../../../msp430-elf/lib/large\libc.a(lib_a-dtoa.o)
 .comment       0x00000000       0x7d c:/ti/ccsv6/tools/compiler/gcc_msp430_4.9.14r1_167/bin/../lib/gcc/msp430-elf/4.9.1/../../../../msp430-elf/lib/large\libc.a(lib_a-impure.o)
 .comment       0x00000000       0x7d c:/ti/ccsv6/tools/compiler/gcc_msp430_4.9.14r1_167/bin/../lib/gcc/msp430-elf/4.9.1/../../../../msp430-elf/lib/large\libc.a(lib_a-locale.o)
 .comment       0x00000000       0x7d c:/ti/ccsv6/tools/compiler/gcc_msp430_4.9.14r1_167/bin/../lib/gcc/msp430-elf/4.9.1/../../../../msp430-elf/lib/large\libc.a(lib_a-malloc.o)
 .comment       0x00000000       0x7d c:/ti/ccsv6/tools/compiler/gcc_msp430_4.9.14r1_167/bin/../lib/gcc/msp430-elf/4.9.1/../../../../msp430-elf/lib/large\libc.a(lib_a-memchr.o)
 .comment       0x00000000       0x7d c:/ti/ccsv6/tools/compiler/gcc_msp430_4.9.14r1_167/bin/../lib/gcc/msp430-elf/4.9.1/../../../../msp430-elf/lib/large\libc.a(lib_a-memcpy.o)
 .comment       0x00000000       0x7d c:/ti/ccsv6/tools/compiler/gcc_msp430_4.9.14r1_167/bin/../lib/gcc/msp430-elf/4.9.1/../../../../msp430-elf/lib/large\libc.a(lib_a-mprec.o)
 .comment       0x00000000       0x7d c:/ti/ccsv6/tools/compiler/gcc_msp430_4.9.14r1_167/bin/../lib/gcc/msp430-elf/4.9.1/../../../../msp430-elf/lib/large\libc.a(lib_a-nano-callocr.o)
 .comment       0x00000000       0x7d c:/ti/ccsv6/tools/compiler/gcc_msp430_4.9.14r1_167/bin/../lib/gcc/msp430-elf/4.9.1/../../../../msp430-elf/lib/large\libc.a(lib_a-nano-freer.o)
 .comment       0x00000000       0x7d c:/ti/ccsv6/tools/compiler/gcc_msp430_4.9.14r1_167/bin/../lib/gcc/msp430-elf/4.9.1/../../../../msp430-elf/lib/large\libc.a(lib_a-nano-mallocr.o)
 .comment       0x00000000       0x7d c:/ti/ccsv6/tools/compiler/gcc_msp430_4.9.14r1_167/bin/../lib/gcc/msp430-elf/4.9.1/../../../../msp430-elf/lib/large\libc.a(lib_a-s_fpclassify.o)
 .comment       0x00000000       0x7d c:/ti/ccsv6/tools/compiler/gcc_msp430_4.9.14r1_167/bin/../lib/gcc/msp430-elf/4.9.1/../../../../msp430-elf/lib/large\libc.a(lib_a-sbrkr.o)
 .comment       0x00000000       0x7d c:/ti/ccsv6/tools/compiler/gcc_msp430_4.9.14r1_167/bin/../lib/gcc/msp430-elf/4.9.1/../../../../msp430-elf/lib/large\libc.a(lib_a-strcmp.o)
 .comment       0x00000000       0x7d c:/ti/ccsv6/tools/compiler/gcc_msp430_4.9.14r1_167/bin/../lib/gcc/msp430-elf/4.9.1/../../../../msp430-elf/lib/large\libc.a(lib_a-strlen.o)
 .comment       0x00000000       0x7d c:/ti/ccsv6/tools/compiler/gcc_msp430_4.9.14r1_167/bin/../lib/gcc/msp430-elf/4.9.1/../../../../msp430-elf/lib/large\libc.a(lib_a-svfiprintf.o)
 .comment       0x00000000       0x7d c:/ti/ccsv6/tools/compiler/gcc_msp430_4.9.14r1_167/bin/../lib/gcc/msp430-elf/4.9.1/../../../../msp430-elf/lib/large\libc.a(lib_a-memmove.o)
 .comment       0x00000000       0x7d c:/ti/ccsv6/tools/compiler/gcc_msp430_4.9.14r1_167/bin/../lib/gcc/msp430-elf/4.9.1/../../../../msp430-elf/lib/large\libc.a(lib_a-nano-reallocr.o)
 .comment       0x00000000       0x7d c:/ti/ccsv6/tools/compiler/gcc_msp430_4.9.14r1_167/bin/../lib/gcc/msp430-elf/4.9.1/../../../../msp430-elf/lib/large\libc.a(lib_a-reent.o)
 .comment       0x00000000       0x7d c:/ti/ccsv6/tools/compiler/gcc_msp430_4.9.14r1_167/bin/../lib/gcc/msp430-elf/4.9.1/../../../../msp430-elf/lib/large\libc.a(lib_a-nano-msizer.o)
 .comment       0x00000000       0x7d c:/ti/ccsv6/tools/compiler/gcc_msp430_4.9.14r1_167/bin/../lib/gcc/msp430-elf/4.9.1/large\libgcc.a(_addsub_df.o)
 .comment       0x00000000       0x7d c:/ti/ccsv6/tools/compiler/gcc_msp430_4.9.14r1_167/bin/../lib/gcc/msp430-elf/4.9.1/large\libgcc.a(_mul_df.o)
 .comment       0x00000000       0x7d c:/ti/ccsv6/tools/compiler/gcc_msp430_4.9.14r1_167/bin/../lib/gcc/msp430-elf/4.9.1/large\libgcc.a(_div_df.o)
 .comment       0x00000000       0x7d c:/ti/ccsv6/tools/compiler/gcc_msp430_4.9.14r1_167/bin/../lib/gcc/msp430-elf/4.9.1/large\libgcc.a(_eq_df.o)
 .comment       0x00000000       0x7d c:/ti/ccsv6/tools/compiler/gcc_msp430_4.9.14r1_167/bin/../lib/gcc/msp430-elf/4.9.1/large\libgcc.a(_ne_df.o)
 .comment       0x00000000       0x7d c:/ti/ccsv6/tools/compiler/gcc_msp430_4.9.14r1_167/bin/../lib/gcc/msp430-elf/4.9.1/large\libgcc.a(_gt_df.o)
 .comment       0x00000000       0x7d c:/ti/ccsv6/tools/compiler/gcc_msp430_4.9.14r1_167/bin/../lib/gcc/msp430-elf/4.9.1/large\libgcc.a(_ge_df.o)
 .comment       0x00000000       0x7d c:/ti/ccsv6/tools/compiler/gcc_msp430_4.9.14r1_167/bin/../lib/gcc/msp430-elf/4.9.1/large\libgcc.a(_lt_df.o)
 .comment       0x00000000       0x7d c:/ti/ccsv6/tools/compiler/gcc_msp430_4.9.14r1_167/bin/../lib/gcc/msp430-elf/4.9.1/large\libgcc.a(_si_to_df.o)
 .comment       0x00000000       0x7d c:/ti/ccsv6/tools/compiler/gcc_msp430_4.9.14r1_167/bin/../lib/gcc/msp430-elf/4.9.1/large\libgcc.a(_df_to_si.o)
 .comment       0x00000000       0x7d c:/ti/ccsv6/tools/compiler/gcc_msp430_4.9.14r1_167/bin/../lib/gcc/msp430-elf/4.9.1/large\libgcc.a(_thenan_df.o)
 .comment       0x00000000       0x7d c:/ti/ccsv6/tools/compiler/gcc_msp430_4.9.14r1_167/bin/../lib/gcc/msp430-elf/4.9.1/large\libgcc.a(_usi_to_df.o)
 .comment       0x00000000       0x7d c:/ti/ccsv6/tools/compiler/gcc_msp430_4.9.14r1_167/bin/../lib/gcc/msp430-elf/4.9.1/large\libgcc.a(lib2divHI.o)
 .comment       0x00000000       0x7d c:/ti/ccsv6/tools/compiler/gcc_msp430_4.9.14r1_167/bin/../lib/gcc/msp430-elf/4.9.1/large\libgcc.a(lib2divSI.o)
 .comment       0x00000000       0x7d c:/ti/ccsv6/tools/compiler/gcc_msp430_4.9.14r1_167/bin/../lib/gcc/msp430-elf/4.9.1/large\libgcc.a(_muldi3.o)
 .comment       0x00000000       0x7d c:/ti/ccsv6/tools/compiler/gcc_msp430_4.9.14r1_167/bin/../lib/gcc/msp430-elf/4.9.1/large\libgcc.a(_lshrdi3.o)
 .comment       0x00000000       0x7d c:/ti/ccsv6/tools/compiler/gcc_msp430_4.9.14r1_167/bin/../lib/gcc/msp430-elf/4.9.1/large\libgcc.a(_ashldi3.o)
 .comment       0x00000000       0x7d c:/ti/ccsv6/tools/compiler/gcc_msp430_4.9.14r1_167/bin/../lib/gcc/msp430-elf/4.9.1/large\libgcc.a(_clzsi2.o)
 .comment       0x00000000       0x7d c:/ti/ccsv6/tools/compiler/gcc_msp430_4.9.14r1_167/bin/../lib/gcc/msp430-elf/4.9.1/large\libgcc.a(_pack_df.o)
 .comment       0x00000000       0x7d c:/ti/ccsv6/tools/compiler/gcc_msp430_4.9.14r1_167/bin/../lib/gcc/msp430-elf/4.9.1/large\libgcc.a(_unpack_df.o)
 .comment       0x00000000       0x7d c:/ti/ccsv6/tools/compiler/gcc_msp430_4.9.14r1_167/bin/../lib/gcc/msp430-elf/4.9.1/large\libgcc.a(_fpcmp_parts_df.o)
 .comment       0x00000000       0x7d c:/ti/ccsv6/tools/compiler/gcc_msp430_4.9.14r1_167/bin/../lib/gcc/msp430-elf/4.9.1/large\libgcc.a(lib2mul.o)
 .comment       0x00000000       0x7d c:/ti/ccsv6/tools/compiler/gcc_msp430_4.9.14r1_167/bin/../lib/gcc/msp430-elf/4.9.1/large\libgcc.a(_clz.o)
 .comment       0x00000000       0x7d c:/ti/ccsv6/tools/compiler/gcc_msp430_4.9.14r1_167/bin/../lib/gcc/msp430-elf/4.9.1/../../../../msp430-elf/lib/large\libnosys.a(sbrk.o)
 .comment       0x00000000       0x7d c:/ti/ccsv6/tools/compiler/gcc_msp430_4.9.14r1_167/bin/../lib/gcc/msp430-elf/4.9.1/../../../../msp430-elf/lib/large\libnosys.a(write.o)
 .comment       0x00000000       0x7d c:/ti/ccsv6/tools/compiler/gcc_msp430_4.9.14r1_167/bin/../lib/gcc/msp430-elf/4.9.1/../../../../msp430-elf/lib/large\libc.a(lib_a-abort.o)
 .comment       0x00000000       0x7d c:/ti/ccsv6/tools/compiler/gcc_msp430_4.9.14r1_167/bin/../lib/gcc/msp430-elf/4.9.1/../../../../msp430-elf/lib/large\libc.a(lib_a-signal.o)
 .comment       0x00000000       0x7d c:/ti/ccsv6/tools/compiler/gcc_msp430_4.9.14r1_167/bin/../lib/gcc/msp430-elf/4.9.1/../../../../msp430-elf/lib/large\libc.a(lib_a-signalr.o)
 .comment       0x00000000       0x7d c:/ti/ccsv6/tools/compiler/gcc_msp430_4.9.14r1_167/bin/../lib/gcc/msp430-elf/4.9.1/../../../../msp430-elf/lib/large\libc.a(lib_a-errno.o)
 .comment       0x00000000       0x7d c:/ti/ccsv6/tools/compiler/gcc_msp430_4.9.14r1_167/bin/../lib/gcc/msp430-elf/4.9.1/large/crtend.o

.debug
 *(.debug)

.line
 *(.line)

.debug_srcinfo
 *(.debug_srcinfo)

.debug_sfnames
 *(.debug_sfnames)

.debug_aranges  0x00000000      0x8f8
 *(.debug_aranges)
 .debug_aranges
                0x00000000       0x30 c:/ti/ccsv6/tools/compiler/gcc_msp430_4.9.14r1_167/bin/../lib/gcc/msp430-elf/4.9.1/../../../../msp430-elf/lib/large/crt0.o
 .debug_aranges
                0x00000030       0x28 ./main.o
 .debug_aranges
                0x00000058       0x20 c:/ti/ccsv6/tools/compiler/gcc_msp430_4.9.14r1_167/bin/../lib/gcc/msp430-elf/4.9.1/../../../../msp430-elf/lib/large\libc.a(lib_a-memset.o)
 .debug_aranges
                0x00000078       0x28 c:/ti/ccsv6/tools/compiler/gcc_msp430_4.9.14r1_167/bin/../lib/gcc/msp430-elf/4.9.1/../../../../msp430-elf/lib/large\libc.a(lib_a-sprintf.o)
 .debug_aranges
                0x000000a0       0x20 c:/ti/ccsv6/tools/compiler/gcc_msp430_4.9.14r1_167/bin/../lib/gcc/msp430-elf/4.9.1/../../../../msp430-elf/lib/large\libc.a(lib_a-svfprintf.o)
 .debug_aranges
                0x000000c0       0x28 c:/ti/ccsv6/tools/compiler/gcc_msp430_4.9.14r1_167/bin/../lib/gcc/msp430-elf/4.9.1/../../../../msp430-elf/lib/large\libc.a(lib_a-dtoa.o)
 .debug_aranges
                0x000000e8       0x18 c:/ti/ccsv6/tools/compiler/gcc_msp430_4.9.14r1_167/bin/../lib/gcc/msp430-elf/4.9.1/../../../../msp430-elf/lib/large\libc.a(lib_a-impure.o)
 .debug_aranges
                0x00000100       0x58 c:/ti/ccsv6/tools/compiler/gcc_msp430_4.9.14r1_167/bin/../lib/gcc/msp430-elf/4.9.1/../../../../msp430-elf/lib/large\libc.a(lib_a-locale.o)
 .debug_aranges
                0x00000158       0x28 c:/ti/ccsv6/tools/compiler/gcc_msp430_4.9.14r1_167/bin/../lib/gcc/msp430-elf/4.9.1/../../../../msp430-elf/lib/large\libc.a(lib_a-malloc.o)
 .debug_aranges
                0x00000180       0x20 c:/ti/ccsv6/tools/compiler/gcc_msp430_4.9.14r1_167/bin/../lib/gcc/msp430-elf/4.9.1/../../../../msp430-elf/lib/large\libc.a(lib_a-memchr.o)
 .debug_aranges
                0x000001a0       0x20 c:/ti/ccsv6/tools/compiler/gcc_msp430_4.9.14r1_167/bin/../lib/gcc/msp430-elf/4.9.1/../../../../msp430-elf/lib/large\libc.a(lib_a-memcpy.o)
 .debug_aranges
                0x000001c0       0xb0 c:/ti/ccsv6/tools/compiler/gcc_msp430_4.9.14r1_167/bin/../lib/gcc/msp430-elf/4.9.1/../../../../msp430-elf/lib/large\libc.a(lib_a-mprec.o)
 .debug_aranges
                0x00000270       0x20 c:/ti/ccsv6/tools/compiler/gcc_msp430_4.9.14r1_167/bin/../lib/gcc/msp430-elf/4.9.1/../../../../msp430-elf/lib/large\libc.a(lib_a-nano-callocr.o)
 .debug_aranges
                0x00000290       0x20 c:/ti/ccsv6/tools/compiler/gcc_msp430_4.9.14r1_167/bin/../lib/gcc/msp430-elf/4.9.1/../../../../msp430-elf/lib/large\libc.a(lib_a-nano-freer.o)
 .debug_aranges
                0x000002b0       0x20 c:/ti/ccsv6/tools/compiler/gcc_msp430_4.9.14r1_167/bin/../lib/gcc/msp430-elf/4.9.1/../../../../msp430-elf/lib/large\libc.a(lib_a-nano-mallocr.o)
 .debug_aranges
                0x000002d0       0x20 c:/ti/ccsv6/tools/compiler/gcc_msp430_4.9.14r1_167/bin/../lib/gcc/msp430-elf/4.9.1/../../../../msp430-elf/lib/large\libc.a(lib_a-s_fpclassify.o)
 .debug_aranges
                0x000002f0       0x20 c:/ti/ccsv6/tools/compiler/gcc_msp430_4.9.14r1_167/bin/../lib/gcc/msp430-elf/4.9.1/../../../../msp430-elf/lib/large\libc.a(lib_a-sbrkr.o)
 .debug_aranges
                0x00000310       0x20 c:/ti/ccsv6/tools/compiler/gcc_msp430_4.9.14r1_167/bin/../lib/gcc/msp430-elf/4.9.1/../../../../msp430-elf/lib/large\libc.a(lib_a-strcmp.o)
 .debug_aranges
                0x00000330       0x20 c:/ti/ccsv6/tools/compiler/gcc_msp430_4.9.14r1_167/bin/../lib/gcc/msp430-elf/4.9.1/../../../../msp430-elf/lib/large\libc.a(lib_a-strlen.o)
 .debug_aranges
                0x00000350       0x28 c:/ti/ccsv6/tools/compiler/gcc_msp430_4.9.14r1_167/bin/../lib/gcc/msp430-elf/4.9.1/../../../../msp430-elf/lib/large\libc.a(lib_a-svfiprintf.o)
 .debug_aranges
                0x00000378       0x20 c:/ti/ccsv6/tools/compiler/gcc_msp430_4.9.14r1_167/bin/../lib/gcc/msp430-elf/4.9.1/../../../../msp430-elf/lib/large\libc.a(lib_a-memmove.o)
 .debug_aranges
                0x00000398       0x20 c:/ti/ccsv6/tools/compiler/gcc_msp430_4.9.14r1_167/bin/../lib/gcc/msp430-elf/4.9.1/../../../../msp430-elf/lib/large\libc.a(lib_a-nano-reallocr.o)
 .debug_aranges
                0x000003b8       0x28 c:/ti/ccsv6/tools/compiler/gcc_msp430_4.9.14r1_167/bin/../lib/gcc/msp430-elf/4.9.1/../../../../msp430-elf/lib/large\libc.a(lib_a-reent.o)
 .debug_aranges
                0x000003e0       0x20 c:/ti/ccsv6/tools/compiler/gcc_msp430_4.9.14r1_167/bin/../lib/gcc/msp430-elf/4.9.1/../../../../msp430-elf/lib/large\libc.a(lib_a-nano-msizer.o)
 .debug_aranges
                0x00000400       0x30 c:/ti/ccsv6/tools/compiler/gcc_msp430_4.9.14r1_167/bin/../lib/gcc/msp430-elf/4.9.1/large\libgcc.a(_addsub_df.o)
 .debug_aranges
                0x00000430       0x20 c:/ti/ccsv6/tools/compiler/gcc_msp430_4.9.14r1_167/bin/../lib/gcc/msp430-elf/4.9.1/large\libgcc.a(_mul_df.o)
 .debug_aranges
                0x00000450       0x20 c:/ti/ccsv6/tools/compiler/gcc_msp430_4.9.14r1_167/bin/../lib/gcc/msp430-elf/4.9.1/large\libgcc.a(_div_df.o)
 .debug_aranges
                0x00000470       0x20 c:/ti/ccsv6/tools/compiler/gcc_msp430_4.9.14r1_167/bin/../lib/gcc/msp430-elf/4.9.1/large\libgcc.a(_eq_df.o)
 .debug_aranges
                0x00000490       0x20 c:/ti/ccsv6/tools/compiler/gcc_msp430_4.9.14r1_167/bin/../lib/gcc/msp430-elf/4.9.1/large\libgcc.a(_ne_df.o)
 .debug_aranges
                0x000004b0       0x20 c:/ti/ccsv6/tools/compiler/gcc_msp430_4.9.14r1_167/bin/../lib/gcc/msp430-elf/4.9.1/large\libgcc.a(_gt_df.o)
 .debug_aranges
                0x000004d0       0x20 c:/ti/ccsv6/tools/compiler/gcc_msp430_4.9.14r1_167/bin/../lib/gcc/msp430-elf/4.9.1/large\libgcc.a(_ge_df.o)
 .debug_aranges
                0x000004f0       0x20 c:/ti/ccsv6/tools/compiler/gcc_msp430_4.9.14r1_167/bin/../lib/gcc/msp430-elf/4.9.1/large\libgcc.a(_lt_df.o)
 .debug_aranges
                0x00000510       0x20 c:/ti/ccsv6/tools/compiler/gcc_msp430_4.9.14r1_167/bin/../lib/gcc/msp430-elf/4.9.1/large\libgcc.a(_si_to_df.o)
 .debug_aranges
                0x00000530       0x20 c:/ti/ccsv6/tools/compiler/gcc_msp430_4.9.14r1_167/bin/../lib/gcc/msp430-elf/4.9.1/large\libgcc.a(_df_to_si.o)
 .debug_aranges
                0x00000550       0x18 c:/ti/ccsv6/tools/compiler/gcc_msp430_4.9.14r1_167/bin/../lib/gcc/msp430-elf/4.9.1/large\libgcc.a(_thenan_df.o)
 .debug_aranges
                0x00000568       0x20 c:/ti/ccsv6/tools/compiler/gcc_msp430_4.9.14r1_167/bin/../lib/gcc/msp430-elf/4.9.1/large\libgcc.a(_usi_to_df.o)
 .debug_aranges
                0x00000588       0x40 c:/ti/ccsv6/tools/compiler/gcc_msp430_4.9.14r1_167/bin/../lib/gcc/msp430-elf/4.9.1/large\libgcc.a(lib2divHI.o)
 .debug_aranges
                0x000005c8       0x40 c:/ti/ccsv6/tools/compiler/gcc_msp430_4.9.14r1_167/bin/../lib/gcc/msp430-elf/4.9.1/large\libgcc.a(lib2divSI.o)
 .debug_aranges
                0x00000608       0x20 c:/ti/ccsv6/tools/compiler/gcc_msp430_4.9.14r1_167/bin/../lib/gcc/msp430-elf/4.9.1/large\libgcc.a(_muldi3.o)
 .debug_aranges
                0x00000628       0x20 c:/ti/ccsv6/tools/compiler/gcc_msp430_4.9.14r1_167/bin/../lib/gcc/msp430-elf/4.9.1/large\libgcc.a(_lshrdi3.o)
 .debug_aranges
                0x00000648       0x20 c:/ti/ccsv6/tools/compiler/gcc_msp430_4.9.14r1_167/bin/../lib/gcc/msp430-elf/4.9.1/large\libgcc.a(_ashldi3.o)
 .debug_aranges
                0x00000668       0x20 c:/ti/ccsv6/tools/compiler/gcc_msp430_4.9.14r1_167/bin/../lib/gcc/msp430-elf/4.9.1/large\libgcc.a(_clzsi2.o)
 .debug_aranges
                0x00000688       0x20 c:/ti/ccsv6/tools/compiler/gcc_msp430_4.9.14r1_167/bin/../lib/gcc/msp430-elf/4.9.1/large\libgcc.a(_pack_df.o)
 .debug_aranges
                0x000006a8       0x20 c:/ti/ccsv6/tools/compiler/gcc_msp430_4.9.14r1_167/bin/../lib/gcc/msp430-elf/4.9.1/large\libgcc.a(_unpack_df.o)
 .debug_aranges
                0x000006c8       0x20 c:/ti/ccsv6/tools/compiler/gcc_msp430_4.9.14r1_167/bin/../lib/gcc/msp430-elf/4.9.1/large\libgcc.a(_fpcmp_parts_df.o)
 .debug_aranges
                0x000006e8       0x30 c:/ti/ccsv6/tools/compiler/gcc_msp430_4.9.14r1_167/bin/../lib/gcc/msp430-elf/4.9.1/large\libgcc.a(lib2mul.o)
 .debug_aranges
                0x00000718       0x18 c:/ti/ccsv6/tools/compiler/gcc_msp430_4.9.14r1_167/bin/../lib/gcc/msp430-elf/4.9.1/large\libgcc.a(_clz.o)
 .debug_aranges
                0x00000730       0x20 c:/ti/ccsv6/tools/compiler/gcc_msp430_4.9.14r1_167/bin/../lib/gcc/msp430-elf/4.9.1/../../../../msp430-elf/lib/large\libcrt.a(crt_bss.o)
 .debug_aranges
                0x00000750       0x20 c:/ti/ccsv6/tools/compiler/gcc_msp430_4.9.14r1_167/bin/../lib/gcc/msp430-elf/4.9.1/../../../../msp430-elf/lib/large\libcrt.a(crt_movedata.o)
 .debug_aranges
                0x00000770       0x20 c:/ti/ccsv6/tools/compiler/gcc_msp430_4.9.14r1_167/bin/../lib/gcc/msp430-elf/4.9.1/../../../../msp430-elf/lib/large\libcrt.a(crt_main.o)
 .debug_aranges
                0x00000790       0x20 c:/ti/ccsv6/tools/compiler/gcc_msp430_4.9.14r1_167/bin/../lib/gcc/msp430-elf/4.9.1/../../../../msp430-elf/lib/large\libnosys.a(sbrk.o)
 .debug_aranges
                0x000007b0       0x20 c:/ti/ccsv6/tools/compiler/gcc_msp430_4.9.14r1_167/bin/../lib/gcc/msp430-elf/4.9.1/../../../../msp430-elf/lib/large\libnosys.a(write.o)
 .debug_aranges
                0x000007d0       0x20 c:/ti/ccsv6/tools/compiler/gcc_msp430_4.9.14r1_167/bin/../lib/gcc/msp430-elf/4.9.1/../../../../msp430-elf/lib/large\libnosys.a(cio.o)
 .debug_aranges
                0x000007f0       0x20 c:/ti/ccsv6/tools/compiler/gcc_msp430_4.9.14r1_167/bin/../lib/gcc/msp430-elf/4.9.1/../../../../msp430-elf/lib/large\libc.a(lib_a-abort.o)
 .debug_aranges
                0x00000810       0x58 c:/ti/ccsv6/tools/compiler/gcc_msp430_4.9.14r1_167/bin/../lib/gcc/msp430-elf/4.9.1/../../../../msp430-elf/lib/large\libc.a(lib_a-signal.o)
 .debug_aranges
                0x00000868       0x28 c:/ti/ccsv6/tools/compiler/gcc_msp430_4.9.14r1_167/bin/../lib/gcc/msp430-elf/4.9.1/../../../../msp430-elf/lib/large\libc.a(lib_a-signalr.o)
 .debug_aranges
                0x00000890       0x20 c:/ti/ccsv6/tools/compiler/gcc_msp430_4.9.14r1_167/bin/../lib/gcc/msp430-elf/4.9.1/../../../../msp430-elf/lib/large\libnosys.a(nosyscalls.o)
 .debug_aranges
                0x000008b0       0x20 c:/ti/ccsv6/tools/compiler/gcc_msp430_4.9.14r1_167/bin/../lib/gcc/msp430-elf/4.9.1/../../../../msp430-elf/lib/large\libc.a(lib_a-errno.o)
 .debug_aranges
                0x000008d0       0x28 c:/ti/ccsv6/tools/compiler/gcc_msp430_4.9.14r1_167/bin/../lib/gcc/msp430-elf/4.9.1/../../../../msp430-elf/lib/large/crtn.o

.debug_pubnames
 *(.debug_pubnames)

.debug_info     0x00000000    0x11f40
 *(.debug_info .gnu.linkonce.wi.*)
 .debug_info    0x00000000       0xd2 c:/ti/ccsv6/tools/compiler/gcc_msp430_4.9.14r1_167/bin/../lib/gcc/msp430-elf/4.9.1/../../../../msp430-elf/lib/large/crt0.o
 .debug_info    0x000000d2      0x234 ./main.o
 .debug_info    0x00000306       0xdd c:/ti/ccsv6/tools/compiler/gcc_msp430_4.9.14r1_167/bin/../lib/gcc/msp430-elf/4.9.1/../../../../msp430-elf/lib/large\libc.a(lib_a-memset.o)
 .debug_info    0x000003e3      0x962 c:/ti/ccsv6/tools/compiler/gcc_msp430_4.9.14r1_167/bin/../lib/gcc/msp430-elf/4.9.1/../../../../msp430-elf/lib/large\libc.a(lib_a-sprintf.o)
 .debug_info    0x00000d45     0x1618 c:/ti/ccsv6/tools/compiler/gcc_msp430_4.9.14r1_167/bin/../lib/gcc/msp430-elf/4.9.1/../../../../msp430-elf/lib/large\libc.a(lib_a-svfprintf.o)
 .debug_info    0x0000235d     0x13b4 c:/ti/ccsv6/tools/compiler/gcc_msp430_4.9.14r1_167/bin/../lib/gcc/msp430-elf/4.9.1/../../../../msp430-elf/lib/large\libc.a(lib_a-dtoa.o)
 .debug_info    0x00003711      0x8a7 c:/ti/ccsv6/tools/compiler/gcc_msp430_4.9.14r1_167/bin/../lib/gcc/msp430-elf/4.9.1/../../../../msp430-elf/lib/large\libc.a(lib_a-impure.o)
 .debug_info    0x00003fb8      0xb8c c:/ti/ccsv6/tools/compiler/gcc_msp430_4.9.14r1_167/bin/../lib/gcc/msp430-elf/4.9.1/../../../../msp430-elf/lib/large\libc.a(lib_a-locale.o)
 .debug_info    0x00004b44      0x897 c:/ti/ccsv6/tools/compiler/gcc_msp430_4.9.14r1_167/bin/../lib/gcc/msp430-elf/4.9.1/../../../../msp430-elf/lib/large\libc.a(lib_a-malloc.o)
 .debug_info    0x000053db      0x102 c:/ti/ccsv6/tools/compiler/gcc_msp430_4.9.14r1_167/bin/../lib/gcc/msp430-elf/4.9.1/../../../../msp430-elf/lib/large\libc.a(lib_a-memchr.o)
 .debug_info    0x000054dd      0x10c c:/ti/ccsv6/tools/compiler/gcc_msp430_4.9.14r1_167/bin/../lib/gcc/msp430-elf/4.9.1/../../../../msp430-elf/lib/large\libc.a(lib_a-memcpy.o)
 .debug_info    0x000055e9     0x1674 c:/ti/ccsv6/tools/compiler/gcc_msp430_4.9.14r1_167/bin/../lib/gcc/msp430-elf/4.9.1/../../../../msp430-elf/lib/large\libc.a(lib_a-mprec.o)
 .debug_info    0x00006c5d      0x8b9 c:/ti/ccsv6/tools/compiler/gcc_msp430_4.9.14r1_167/bin/../lib/gcc/msp430-elf/4.9.1/../../../../msp430-elf/lib/large\libc.a(lib_a-nano-callocr.o)
 .debug_info    0x00007516      0x8f2 c:/ti/ccsv6/tools/compiler/gcc_msp430_4.9.14r1_167/bin/../lib/gcc/msp430-elf/4.9.1/../../../../msp430-elf/lib/large\libc.a(lib_a-nano-freer.o)
 .debug_info    0x00007e08      0x9d3 c:/ti/ccsv6/tools/compiler/gcc_msp430_4.9.14r1_167/bin/../lib/gcc/msp430-elf/4.9.1/../../../../msp430-elf/lib/large\libc.a(lib_a-nano-mallocr.o)
 .debug_info    0x000087db      0x14f c:/ti/ccsv6/tools/compiler/gcc_msp430_4.9.14r1_167/bin/../lib/gcc/msp430-elf/4.9.1/../../../../msp430-elf/lib/large\libc.a(lib_a-s_fpclassify.o)
 .debug_info    0x0000892a      0x875 c:/ti/ccsv6/tools/compiler/gcc_msp430_4.9.14r1_167/bin/../lib/gcc/msp430-elf/4.9.1/../../../../msp430-elf/lib/large\libc.a(lib_a-sbrkr.o)
 .debug_info    0x0000919f       0xc1 c:/ti/ccsv6/tools/compiler/gcc_msp430_4.9.14r1_167/bin/../lib/gcc/msp430-elf/4.9.1/../../../../msp430-elf/lib/large\libc.a(lib_a-strcmp.o)
 .debug_info    0x00009260       0xce c:/ti/ccsv6/tools/compiler/gcc_msp430_4.9.14r1_167/bin/../lib/gcc/msp430-elf/4.9.1/../../../../msp430-elf/lib/large\libc.a(lib_a-strlen.o)
 .debug_info    0x0000932e      0xfbc c:/ti/ccsv6/tools/compiler/gcc_msp430_4.9.14r1_167/bin/../lib/gcc/msp430-elf/4.9.1/../../../../msp430-elf/lib/large\libc.a(lib_a-svfiprintf.o)
 .debug_info    0x0000a2ea      0x10a c:/ti/ccsv6/tools/compiler/gcc_msp430_4.9.14r1_167/bin/../lib/gcc/msp430-elf/4.9.1/../../../../msp430-elf/lib/large\libc.a(lib_a-memmove.o)
 .debug_info    0x0000a3f4      0x987 c:/ti/ccsv6/tools/compiler/gcc_msp430_4.9.14r1_167/bin/../lib/gcc/msp430-elf/4.9.1/../../../../msp430-elf/lib/large\libc.a(lib_a-nano-reallocr.o)
 .debug_info    0x0000ad7b      0x9dc c:/ti/ccsv6/tools/compiler/gcc_msp430_4.9.14r1_167/bin/../lib/gcc/msp430-elf/4.9.1/../../../../msp430-elf/lib/large\libc.a(lib_a-reent.o)
 .debug_info    0x0000b757      0x88d c:/ti/ccsv6/tools/compiler/gcc_msp430_4.9.14r1_167/bin/../lib/gcc/msp430-elf/4.9.1/../../../../msp430-elf/lib/large\libc.a(lib_a-nano-msizer.o)
 .debug_info    0x0000bfe4      0x57b c:/ti/ccsv6/tools/compiler/gcc_msp430_4.9.14r1_167/bin/../lib/gcc/msp430-elf/4.9.1/large\libgcc.a(_addsub_df.o)
 .debug_info    0x0000c55f      0x4c5 c:/ti/ccsv6/tools/compiler/gcc_msp430_4.9.14r1_167/bin/../lib/gcc/msp430-elf/4.9.1/large\libgcc.a(_mul_df.o)
 .debug_info    0x0000ca24      0x3ca c:/ti/ccsv6/tools/compiler/gcc_msp430_4.9.14r1_167/bin/../lib/gcc/msp430-elf/4.9.1/large\libgcc.a(_div_df.o)
 .debug_info    0x0000cdee      0x2f6 c:/ti/ccsv6/tools/compiler/gcc_msp430_4.9.14r1_167/bin/../lib/gcc/msp430-elf/4.9.1/large\libgcc.a(_eq_df.o)
 .debug_info    0x0000d0e4      0x2f6 c:/ti/ccsv6/tools/compiler/gcc_msp430_4.9.14r1_167/bin/../lib/gcc/msp430-elf/4.9.1/large\libgcc.a(_ne_df.o)
 .debug_info    0x0000d3da      0x2f6 c:/ti/ccsv6/tools/compiler/gcc_msp430_4.9.14r1_167/bin/../lib/gcc/msp430-elf/4.9.1/large\libgcc.a(_gt_df.o)
 .debug_info    0x0000d6d0      0x2f6 c:/ti/ccsv6/tools/compiler/gcc_msp430_4.9.14r1_167/bin/../lib/gcc/msp430-elf/4.9.1/large\libgcc.a(_ge_df.o)
 .debug_info    0x0000d9c6      0x2f6 c:/ti/ccsv6/tools/compiler/gcc_msp430_4.9.14r1_167/bin/../lib/gcc/msp430-elf/4.9.1/large\libgcc.a(_lt_df.o)
 .debug_info    0x0000dcbc      0x254 c:/ti/ccsv6/tools/compiler/gcc_msp430_4.9.14r1_167/bin/../lib/gcc/msp430-elf/4.9.1/large\libgcc.a(_si_to_df.o)
 .debug_info    0x0000df10      0x2e0 c:/ti/ccsv6/tools/compiler/gcc_msp430_4.9.14r1_167/bin/../lib/gcc/msp430-elf/4.9.1/large\libgcc.a(_df_to_si.o)
 .debug_info    0x0000e1f0      0x15a c:/ti/ccsv6/tools/compiler/gcc_msp430_4.9.14r1_167/bin/../lib/gcc/msp430-elf/4.9.1/large\libgcc.a(_thenan_df.o)
 .debug_info    0x0000e34a      0x23d c:/ti/ccsv6/tools/compiler/gcc_msp430_4.9.14r1_167/bin/../lib/gcc/msp430-elf/4.9.1/large\libgcc.a(_usi_to_df.o)
 .debug_info    0x0000e587      0x250 c:/ti/ccsv6/tools/compiler/gcc_msp430_4.9.14r1_167/bin/../lib/gcc/msp430-elf/4.9.1/large\libgcc.a(lib2divHI.o)
 .debug_info    0x0000e7d7      0x266 c:/ti/ccsv6/tools/compiler/gcc_msp430_4.9.14r1_167/bin/../lib/gcc/msp430-elf/4.9.1/large\libgcc.a(lib2divSI.o)
 .debug_info    0x0000ea3d      0x23f c:/ti/ccsv6/tools/compiler/gcc_msp430_4.9.14r1_167/bin/../lib/gcc/msp430-elf/4.9.1/large\libgcc.a(_muldi3.o)
 .debug_info    0x0000ec7c      0x195 c:/ti/ccsv6/tools/compiler/gcc_msp430_4.9.14r1_167/bin/../lib/gcc/msp430-elf/4.9.1/large\libgcc.a(_lshrdi3.o)
 .debug_info    0x0000ee11      0x194 c:/ti/ccsv6/tools/compiler/gcc_msp430_4.9.14r1_167/bin/../lib/gcc/msp430-elf/4.9.1/large\libgcc.a(_ashldi3.o)
 .debug_info    0x0000efa5      0x136 c:/ti/ccsv6/tools/compiler/gcc_msp430_4.9.14r1_167/bin/../lib/gcc/msp430-elf/4.9.1/large\libgcc.a(_clzsi2.o)
 .debug_info    0x0000f0db      0x2d7 c:/ti/ccsv6/tools/compiler/gcc_msp430_4.9.14r1_167/bin/../lib/gcc/msp430-elf/4.9.1/large\libgcc.a(_pack_df.o)
 .debug_info    0x0000f3b2      0x265 c:/ti/ccsv6/tools/compiler/gcc_msp430_4.9.14r1_167/bin/../lib/gcc/msp430-elf/4.9.1/large\libgcc.a(_unpack_df.o)
 .debug_info    0x0000f617      0x1ed c:/ti/ccsv6/tools/compiler/gcc_msp430_4.9.14r1_167/bin/../lib/gcc/msp430-elf/4.9.1/large\libgcc.a(_fpcmp_parts_df.o)
 .debug_info    0x0000f804      0x14e c:/ti/ccsv6/tools/compiler/gcc_msp430_4.9.14r1_167/bin/../lib/gcc/msp430-elf/4.9.1/large\libgcc.a(lib2mul.o)
 .debug_info    0x0000f952       0xc0 c:/ti/ccsv6/tools/compiler/gcc_msp430_4.9.14r1_167/bin/../lib/gcc/msp430-elf/4.9.1/large\libgcc.a(_clz.o)
 .debug_info    0x0000fa12       0xd6 c:/ti/ccsv6/tools/compiler/gcc_msp430_4.9.14r1_167/bin/../lib/gcc/msp430-elf/4.9.1/../../../../msp430-elf/lib/large\libcrt.a(crt_bss.o)
 .debug_info    0x0000fae8       0xd6 c:/ti/ccsv6/tools/compiler/gcc_msp430_4.9.14r1_167/bin/../lib/gcc/msp430-elf/4.9.1/../../../../msp430-elf/lib/large\libcrt.a(crt_movedata.o)
 .debug_info    0x0000fbbe       0xd6 c:/ti/ccsv6/tools/compiler/gcc_msp430_4.9.14r1_167/bin/../lib/gcc/msp430-elf/4.9.1/../../../../msp430-elf/lib/large\libcrt.a(crt_main.o)
 .debug_info    0x0000fc94      0x114 c:/ti/ccsv6/tools/compiler/gcc_msp430_4.9.14r1_167/bin/../lib/gcc/msp430-elf/4.9.1/../../../../msp430-elf/lib/large\libnosys.a(sbrk.o)
 .debug_info    0x0000fda8      0x1db c:/ti/ccsv6/tools/compiler/gcc_msp430_4.9.14r1_167/bin/../lib/gcc/msp430-elf/4.9.1/../../../../msp430-elf/lib/large\libnosys.a(write.o)
 .debug_info    0x0000ff83       0xd5 c:/ti/ccsv6/tools/compiler/gcc_msp430_4.9.14r1_167/bin/../lib/gcc/msp430-elf/4.9.1/../../../../msp430-elf/lib/large\libnosys.a(cio.o)
 .debug_info    0x00010058       0xde c:/ti/ccsv6/tools/compiler/gcc_msp430_4.9.14r1_167/bin/../lib/gcc/msp430-elf/4.9.1/../../../../msp430-elf/lib/large\libc.a(lib_a-abort.o)
 .debug_info    0x00010136      0xb83 c:/ti/ccsv6/tools/compiler/gcc_msp430_4.9.14r1_167/bin/../lib/gcc/msp430-elf/4.9.1/../../../../msp430-elf/lib/large\libc.a(lib_a-signal.o)
 .debug_info    0x00010cb9      0x8d0 c:/ti/ccsv6/tools/compiler/gcc_msp430_4.9.14r1_167/bin/../lib/gcc/msp430-elf/4.9.1/../../../../msp430-elf/lib/large\libc.a(lib_a-signalr.o)
 .debug_info    0x00011589       0xdc c:/ti/ccsv6/tools/compiler/gcc_msp430_4.9.14r1_167/bin/../lib/gcc/msp430-elf/4.9.1/../../../../msp430-elf/lib/large\libnosys.a(nosyscalls.o)
 .debug_info    0x00011665      0x809 c:/ti/ccsv6/tools/compiler/gcc_msp430_4.9.14r1_167/bin/../lib/gcc/msp430-elf/4.9.1/../../../../msp430-elf/lib/large\libc.a(lib_a-errno.o)
 .debug_info    0x00011e6e       0xd2 c:/ti/ccsv6/tools/compiler/gcc_msp430_4.9.14r1_167/bin/../lib/gcc/msp430-elf/4.9.1/../../../../msp430-elf/lib/large/crtn.o

.debug_abbrev   0x00000000     0x4cb0
 *(.debug_abbrev)
 .debug_abbrev  0x00000000       0x12 c:/ti/ccsv6/tools/compiler/gcc_msp430_4.9.14r1_167/bin/../lib/gcc/msp430-elf/4.9.1/../../../../msp430-elf/lib/large/crt0.o
 .debug_abbrev  0x00000012       0xd1 ./main.o
 .debug_abbrev  0x000000e3       0x8c c:/ti/ccsv6/tools/compiler/gcc_msp430_4.9.14r1_167/bin/../lib/gcc/msp430-elf/4.9.1/../../../../msp430-elf/lib/large\libc.a(lib_a-memset.o)
 .debug_abbrev  0x0000016f      0x1dc c:/ti/ccsv6/tools/compiler/gcc_msp430_4.9.14r1_167/bin/../lib/gcc/msp430-elf/4.9.1/../../../../msp430-elf/lib/large\libc.a(lib_a-sprintf.o)
 .debug_abbrev  0x0000034b      0x385 c:/ti/ccsv6/tools/compiler/gcc_msp430_4.9.14r1_167/bin/../lib/gcc/msp430-elf/4.9.1/../../../../msp430-elf/lib/large\libc.a(lib_a-svfprintf.o)
 .debug_abbrev  0x000006d0      0x2e7 c:/ti/ccsv6/tools/compiler/gcc_msp430_4.9.14r1_167/bin/../lib/gcc/msp430-elf/4.9.1/../../../../msp430-elf/lib/large\libc.a(lib_a-dtoa.o)
 .debug_abbrev  0x000009b7      0x159 c:/ti/ccsv6/tools/compiler/gcc_msp430_4.9.14r1_167/bin/../lib/gcc/msp430-elf/4.9.1/../../../../msp430-elf/lib/large\libc.a(lib_a-impure.o)
 .debug_abbrev  0x00000b10      0x260 c:/ti/ccsv6/tools/compiler/gcc_msp430_4.9.14r1_167/bin/../lib/gcc/msp430-elf/4.9.1/../../../../msp430-elf/lib/large\libc.a(lib_a-locale.o)
 .debug_abbrev  0x00000d70      0x1bf c:/ti/ccsv6/tools/compiler/gcc_msp430_4.9.14r1_167/bin/../lib/gcc/msp430-elf/4.9.1/../../../../msp430-elf/lib/large\libc.a(lib_a-malloc.o)
 .debug_abbrev  0x00000f2f       0xa9 c:/ti/ccsv6/tools/compiler/gcc_msp430_4.9.14r1_167/bin/../lib/gcc/msp430-elf/4.9.1/../../../../msp430-elf/lib/large\libc.a(lib_a-memchr.o)
 .debug_abbrev  0x00000fd8       0xa2 c:/ti/ccsv6/tools/compiler/gcc_msp430_4.9.14r1_167/bin/../lib/gcc/msp430-elf/4.9.1/../../../../msp430-elf/lib/large\libc.a(lib_a-memcpy.o)
 .debug_abbrev  0x0000107a      0x32f c:/ti/ccsv6/tools/compiler/gcc_msp430_4.9.14r1_167/bin/../lib/gcc/msp430-elf/4.9.1/../../../../msp430-elf/lib/large\libc.a(lib_a-mprec.o)
 .debug_abbrev  0x000013a9      0x1c1 c:/ti/ccsv6/tools/compiler/gcc_msp430_4.9.14r1_167/bin/../lib/gcc/msp430-elf/4.9.1/../../../../msp430-elf/lib/large\libc.a(lib_a-nano-callocr.o)
 .debug_abbrev  0x0000156a      0x1db c:/ti/ccsv6/tools/compiler/gcc_msp430_4.9.14r1_167/bin/../lib/gcc/msp430-elf/4.9.1/../../../../msp430-elf/lib/large\libc.a(lib_a-nano-freer.o)
 .debug_abbrev  0x00001745      0x25f c:/ti/ccsv6/tools/compiler/gcc_msp430_4.9.14r1_167/bin/../lib/gcc/msp430-elf/4.9.1/../../../../msp430-elf/lib/large\libc.a(lib_a-nano-mallocr.o)
 .debug_abbrev  0x000019a4       0xd5 c:/ti/ccsv6/tools/compiler/gcc_msp430_4.9.14r1_167/bin/../lib/gcc/msp430-elf/4.9.1/../../../../msp430-elf/lib/large\libc.a(lib_a-s_fpclassify.o)
 .debug_abbrev  0x00001a79      0x1c5 c:/ti/ccsv6/tools/compiler/gcc_msp430_4.9.14r1_167/bin/../lib/gcc/msp430-elf/4.9.1/../../../../msp430-elf/lib/large\libc.a(lib_a-sbrkr.o)
 .debug_abbrev  0x00001c3e       0x61 c:/ti/ccsv6/tools/compiler/gcc_msp430_4.9.14r1_167/bin/../lib/gcc/msp430-elf/4.9.1/../../../../msp430-elf/lib/large\libc.a(lib_a-strcmp.o)
 .debug_abbrev  0x00001c9f       0x7d c:/ti/ccsv6/tools/compiler/gcc_msp430_4.9.14r1_167/bin/../lib/gcc/msp430-elf/4.9.1/../../../../msp430-elf/lib/large\libc.a(lib_a-strlen.o)
 .debug_abbrev  0x00001d1c      0x294 c:/ti/ccsv6/tools/compiler/gcc_msp430_4.9.14r1_167/bin/../lib/gcc/msp430-elf/4.9.1/../../../../msp430-elf/lib/large\libc.a(lib_a-svfiprintf.o)
 .debug_abbrev  0x00001fb0       0x9a c:/ti/ccsv6/tools/compiler/gcc_msp430_4.9.14r1_167/bin/../lib/gcc/msp430-elf/4.9.1/../../../../msp430-elf/lib/large\libc.a(lib_a-memmove.o)
 .debug_abbrev  0x0000204a      0x1de c:/ti/ccsv6/tools/compiler/gcc_msp430_4.9.14r1_167/bin/../lib/gcc/msp430-elf/4.9.1/../../../../msp430-elf/lib/large\libc.a(lib_a-nano-reallocr.o)
 .debug_abbrev  0x00002228      0x210 c:/ti/ccsv6/tools/compiler/gcc_msp430_4.9.14r1_167/bin/../lib/gcc/msp430-elf/4.9.1/../../../../msp430-elf/lib/large\libc.a(lib_a-reent.o)
 .debug_abbrev  0x00002438      0x184 c:/ti/ccsv6/tools/compiler/gcc_msp430_4.9.14r1_167/bin/../lib/gcc/msp430-elf/4.9.1/../../../../msp430-elf/lib/large\libc.a(lib_a-nano-msizer.o)
 .debug_abbrev  0x000025bc      0x23c c:/ti/ccsv6/tools/compiler/gcc_msp430_4.9.14r1_167/bin/../lib/gcc/msp430-elf/4.9.1/large\libgcc.a(_addsub_df.o)
 .debug_abbrev  0x000027f8      0x222 c:/ti/ccsv6/tools/compiler/gcc_msp430_4.9.14r1_167/bin/../lib/gcc/msp430-elf/4.9.1/large\libgcc.a(_mul_df.o)
 .debug_abbrev  0x00002a1a      0x208 c:/ti/ccsv6/tools/compiler/gcc_msp430_4.9.14r1_167/bin/../lib/gcc/msp430-elf/4.9.1/large\libgcc.a(_div_df.o)
 .debug_abbrev  0x00002c22      0x1a4 c:/ti/ccsv6/tools/compiler/gcc_msp430_4.9.14r1_167/bin/../lib/gcc/msp430-elf/4.9.1/large\libgcc.a(_eq_df.o)
 .debug_abbrev  0x00002dc6      0x1a4 c:/ti/ccsv6/tools/compiler/gcc_msp430_4.9.14r1_167/bin/../lib/gcc/msp430-elf/4.9.1/large\libgcc.a(_ne_df.o)
 .debug_abbrev  0x00002f6a      0x1a4 c:/ti/ccsv6/tools/compiler/gcc_msp430_4.9.14r1_167/bin/../lib/gcc/msp430-elf/4.9.1/large\libgcc.a(_gt_df.o)
 .debug_abbrev  0x0000310e      0x1a4 c:/ti/ccsv6/tools/compiler/gcc_msp430_4.9.14r1_167/bin/../lib/gcc/msp430-elf/4.9.1/large\libgcc.a(_ge_df.o)
 .debug_abbrev  0x000032b2      0x1a4 c:/ti/ccsv6/tools/compiler/gcc_msp430_4.9.14r1_167/bin/../lib/gcc/msp430-elf/4.9.1/large\libgcc.a(_lt_df.o)
 .debug_abbrev  0x00003456      0x19c c:/ti/ccsv6/tools/compiler/gcc_msp430_4.9.14r1_167/bin/../lib/gcc/msp430-elf/4.9.1/large\libgcc.a(_si_to_df.o)
 .debug_abbrev  0x000035f2      0x194 c:/ti/ccsv6/tools/compiler/gcc_msp430_4.9.14r1_167/bin/../lib/gcc/msp430-elf/4.9.1/large\libgcc.a(_df_to_si.o)
 .debug_abbrev  0x00003786       0xb6 c:/ti/ccsv6/tools/compiler/gcc_msp430_4.9.14r1_167/bin/../lib/gcc/msp430-elf/4.9.1/large\libgcc.a(_thenan_df.o)
 .debug_abbrev  0x0000383c      0x19e c:/ti/ccsv6/tools/compiler/gcc_msp430_4.9.14r1_167/bin/../lib/gcc/msp430-elf/4.9.1/large\libgcc.a(_usi_to_df.o)
 .debug_abbrev  0x000039da       0xd2 c:/ti/ccsv6/tools/compiler/gcc_msp430_4.9.14r1_167/bin/../lib/gcc/msp430-elf/4.9.1/large\libgcc.a(lib2divHI.o)
 .debug_abbrev  0x00003aac       0xc3 c:/ti/ccsv6/tools/compiler/gcc_msp430_4.9.14r1_167/bin/../lib/gcc/msp430-elf/4.9.1/large\libgcc.a(lib2divSI.o)
 .debug_abbrev  0x00003b6f      0x115 c:/ti/ccsv6/tools/compiler/gcc_msp430_4.9.14r1_167/bin/../lib/gcc/msp430-elf/4.9.1/large\libgcc.a(_muldi3.o)
 .debug_abbrev  0x00003c84       0xef c:/ti/ccsv6/tools/compiler/gcc_msp430_4.9.14r1_167/bin/../lib/gcc/msp430-elf/4.9.1/large\libgcc.a(_lshrdi3.o)
 .debug_abbrev  0x00003d73       0xfe c:/ti/ccsv6/tools/compiler/gcc_msp430_4.9.14r1_167/bin/../lib/gcc/msp430-elf/4.9.1/large\libgcc.a(_ashldi3.o)
 .debug_abbrev  0x00003e71       0xc0 c:/ti/ccsv6/tools/compiler/gcc_msp430_4.9.14r1_167/bin/../lib/gcc/msp430-elf/4.9.1/large\libgcc.a(_clzsi2.o)
 .debug_abbrev  0x00003f31      0x195 c:/ti/ccsv6/tools/compiler/gcc_msp430_4.9.14r1_167/bin/../lib/gcc/msp430-elf/4.9.1/large\libgcc.a(_pack_df.o)
 .debug_abbrev  0x000040c6      0x141 c:/ti/ccsv6/tools/compiler/gcc_msp430_4.9.14r1_167/bin/../lib/gcc/msp430-elf/4.9.1/large\libgcc.a(_unpack_df.o)
 .debug_abbrev  0x00004207      0x10e c:/ti/ccsv6/tools/compiler/gcc_msp430_4.9.14r1_167/bin/../lib/gcc/msp430-elf/4.9.1/large\libgcc.a(_fpcmp_parts_df.o)
 .debug_abbrev  0x00004315       0x7e c:/ti/ccsv6/tools/compiler/gcc_msp430_4.9.14r1_167/bin/../lib/gcc/msp430-elf/4.9.1/large\libgcc.a(lib2mul.o)
 .debug_abbrev  0x00004393       0x5d c:/ti/ccsv6/tools/compiler/gcc_msp430_4.9.14r1_167/bin/../lib/gcc/msp430-elf/4.9.1/large\libgcc.a(_clz.o)
 .debug_abbrev  0x000043f0       0x14 c:/ti/ccsv6/tools/compiler/gcc_msp430_4.9.14r1_167/bin/../lib/gcc/msp430-elf/4.9.1/../../../../msp430-elf/lib/large\libcrt.a(crt_bss.o)
 .debug_abbrev  0x00004404       0x14 c:/ti/ccsv6/tools/compiler/gcc_msp430_4.9.14r1_167/bin/../lib/gcc/msp430-elf/4.9.1/../../../../msp430-elf/lib/large\libcrt.a(crt_movedata.o)
 .debug_abbrev  0x00004418       0x14 c:/ti/ccsv6/tools/compiler/gcc_msp430_4.9.14r1_167/bin/../lib/gcc/msp430-elf/4.9.1/../../../../msp430-elf/lib/large\libcrt.a(crt_main.o)
 .debug_abbrev  0x0000442c      0x100 c:/ti/ccsv6/tools/compiler/gcc_msp430_4.9.14r1_167/bin/../lib/gcc/msp430-elf/4.9.1/../../../../msp430-elf/lib/large\libnosys.a(sbrk.o)
 .debug_abbrev  0x0000452c      0x127 c:/ti/ccsv6/tools/compiler/gcc_msp430_4.9.14r1_167/bin/../lib/gcc/msp430-elf/4.9.1/../../../../msp430-elf/lib/large\libnosys.a(write.o)
 .debug_abbrev  0x00004653       0x14 c:/ti/ccsv6/tools/compiler/gcc_msp430_4.9.14r1_167/bin/../lib/gcc/msp430-elf/4.9.1/../../../../msp430-elf/lib/large\libnosys.a(cio.o)
 .debug_abbrev  0x00004667       0x93 c:/ti/ccsv6/tools/compiler/gcc_msp430_4.9.14r1_167/bin/../lib/gcc/msp430-elf/4.9.1/../../../../msp430-elf/lib/large\libc.a(lib_a-abort.o)
 .debug_abbrev  0x000046fa      0x275 c:/ti/ccsv6/tools/compiler/gcc_msp430_4.9.14r1_167/bin/../lib/gcc/msp430-elf/4.9.1/../../../../msp430-elf/lib/large\libc.a(lib_a-signal.o)
 .debug_abbrev  0x0000496f      0x1c4 c:/ti/ccsv6/tools/compiler/gcc_msp430_4.9.14r1_167/bin/../lib/gcc/msp430-elf/4.9.1/../../../../msp430-elf/lib/large\libc.a(lib_a-signalr.o)
 .debug_abbrev  0x00004b33       0x14 c:/ti/ccsv6/tools/compiler/gcc_msp430_4.9.14r1_167/bin/../lib/gcc/msp430-elf/4.9.1/../../../../msp430-elf/lib/large\libnosys.a(nosyscalls.o)
 .debug_abbrev  0x00004b47      0x157 c:/ti/ccsv6/tools/compiler/gcc_msp430_4.9.14r1_167/bin/../lib/gcc/msp430-elf/4.9.1/../../../../msp430-elf/lib/large\libc.a(lib_a-errno.o)
 .debug_abbrev  0x00004c9e       0x12 c:/ti/ccsv6/tools/compiler/gcc_msp430_4.9.14r1_167/bin/../lib/gcc/msp430-elf/4.9.1/../../../../msp430-elf/lib/large/crtn.o

.debug_line     0x00000000     0x76b1
 *(.debug_line .debug_line.* .debug_line_end)
 .debug_line    0x00000000      0x105 c:/ti/ccsv6/tools/compiler/gcc_msp430_4.9.14r1_167/bin/../lib/gcc/msp430-elf/4.9.1/../../../../msp430-elf/lib/large/crt0.o
 .debug_line    0x00000105      0x145 ./main.o
 .debug_line    0x0000024a      0x115 c:/ti/ccsv6/tools/compiler/gcc_msp430_4.9.14r1_167/bin/../lib/gcc/msp430-elf/4.9.1/../../../../msp430-elf/lib/large\libc.a(lib_a-memset.o)
 .debug_line.text.memset
                0x0000035f       0x22 c:/ti/ccsv6/tools/compiler/gcc_msp430_4.9.14r1_167/bin/../lib/gcc/msp430-elf/4.9.1/../../../../msp430-elf/lib/large\libc.a(lib_a-memset.o)
 .debug_line_end
                0x00000381        0x0 c:/ti/ccsv6/tools/compiler/gcc_msp430_4.9.14r1_167/bin/../lib/gcc/msp430-elf/4.9.1/../../../../msp430-elf/lib/large\libc.a(lib_a-memset.o)
 .debug_line    0x00000381      0x18e c:/ti/ccsv6/tools/compiler/gcc_msp430_4.9.14r1_167/bin/../lib/gcc/msp430-elf/4.9.1/../../../../msp430-elf/lib/large\libc.a(lib_a-sprintf.o)
 .debug_line.text._sprintf_r
                0x0000050f       0x3b c:/ti/ccsv6/tools/compiler/gcc_msp430_4.9.14r1_167/bin/../lib/gcc/msp430-elf/4.9.1/../../../../msp430-elf/lib/large\libc.a(lib_a-sprintf.o)
 .debug_line.text.sprintf
                0x0000054a       0x3b c:/ti/ccsv6/tools/compiler/gcc_msp430_4.9.14r1_167/bin/../lib/gcc/msp430-elf/4.9.1/../../../../msp430-elf/lib/large\libc.a(lib_a-sprintf.o)
 .debug_line_end
                0x00000585        0x0 c:/ti/ccsv6/tools/compiler/gcc_msp430_4.9.14r1_167/bin/../lib/gcc/msp430-elf/4.9.1/../../../../msp430-elf/lib/large\libc.a(lib_a-sprintf.o)
 .debug_line    0x00000585      0x229 c:/ti/ccsv6/tools/compiler/gcc_msp430_4.9.14r1_167/bin/../lib/gcc/msp430-elf/4.9.1/../../../../msp430-elf/lib/large\libc.a(lib_a-svfprintf.o)
 .debug_line.text._svfprintf_r
                0x000007ae      0xc5c c:/ti/ccsv6/tools/compiler/gcc_msp430_4.9.14r1_167/bin/../lib/gcc/msp430-elf/4.9.1/../../../../msp430-elf/lib/large\libc.a(lib_a-svfprintf.o)
 .debug_line_end
                0x0000140a        0x0 c:/ti/ccsv6/tools/compiler/gcc_msp430_4.9.14r1_167/bin/../lib/gcc/msp430-elf/4.9.1/../../../../msp430-elf/lib/large\libc.a(lib_a-svfprintf.o)
 .debug_line    0x0000140a      0x1e7 c:/ti/ccsv6/tools/compiler/gcc_msp430_4.9.14r1_167/bin/../lib/gcc/msp430-elf/4.9.1/../../../../msp430-elf/lib/large\libc.a(lib_a-dtoa.o)
 .debug_line.text.quorem
                0x000015f1      0x182 c:/ti/ccsv6/tools/compiler/gcc_msp430_4.9.14r1_167/bin/../lib/gcc/msp430-elf/4.9.1/../../../../msp430-elf/lib/large\libc.a(lib_a-dtoa.o)
 .debug_line.text._dtoa_r
                0x00001773      0x98e c:/ti/ccsv6/tools/compiler/gcc_msp430_4.9.14r1_167/bin/../lib/gcc/msp430-elf/4.9.1/../../../../msp430-elf/lib/large\libc.a(lib_a-dtoa.o)
 .debug_line_end
                0x00002101        0x0 c:/ti/ccsv6/tools/compiler/gcc_msp430_4.9.14r1_167/bin/../lib/gcc/msp430-elf/4.9.1/../../../../msp430-elf/lib/large\libc.a(lib_a-dtoa.o)
 .debug_line    0x00002101      0x12d c:/ti/ccsv6/tools/compiler/gcc_msp430_4.9.14r1_167/bin/../lib/gcc/msp430-elf/4.9.1/../../../../msp430-elf/lib/large\libc.a(lib_a-impure.o)
 .debug_line_end
                0x0000222e        0x0 c:/ti/ccsv6/tools/compiler/gcc_msp430_4.9.14r1_167/bin/../lib/gcc/msp430-elf/4.9.1/../../../../msp430-elf/lib/large\libc.a(lib_a-impure.o)
 .debug_line    0x0000222e      0x184 c:/ti/ccsv6/tools/compiler/gcc_msp430_4.9.14r1_167/bin/../lib/gcc/msp430-elf/4.9.1/../../../../msp430-elf/lib/large\libc.a(lib_a-locale.o)
 .debug_line.text._setlocale_r
                0x000023b2       0x42 c:/ti/ccsv6/tools/compiler/gcc_msp430_4.9.14r1_167/bin/../lib/gcc/msp430-elf/4.9.1/../../../../msp430-elf/lib/large\libc.a(lib_a-locale.o)
 .debug_line.text.__locale_charset
                0x000023f4       0x17 c:/ti/ccsv6/tools/compiler/gcc_msp430_4.9.14r1_167/bin/../lib/gcc/msp430-elf/4.9.1/../../../../msp430-elf/lib/large\libc.a(lib_a-locale.o)
 .debug_line.text.__locale_mb_cur_max
                0x0000240b       0x17 c:/ti/ccsv6/tools/compiler/gcc_msp430_4.9.14r1_167/bin/../lib/gcc/msp430-elf/4.9.1/../../../../msp430-elf/lib/large\libc.a(lib_a-locale.o)
 .debug_line.text.__locale_msgcharset
                0x00002422       0x17 c:/ti/ccsv6/tools/compiler/gcc_msp430_4.9.14r1_167/bin/../lib/gcc/msp430-elf/4.9.1/../../../../msp430-elf/lib/large\libc.a(lib_a-locale.o)
 .debug_line.text.__locale_cjk_lang
                0x00002439       0x17 c:/ti/ccsv6/tools/compiler/gcc_msp430_4.9.14r1_167/bin/../lib/gcc/msp430-elf/4.9.1/../../../../msp430-elf/lib/large\libc.a(lib_a-locale.o)
 .debug_line.text._localeconv_r
                0x00002450       0x17 c:/ti/ccsv6/tools/compiler/gcc_msp430_4.9.14r1_167/bin/../lib/gcc/msp430-elf/4.9.1/../../../../msp430-elf/lib/large\libc.a(lib_a-locale.o)
 .debug_line.text.setlocale
                0x00002467       0x1d c:/ti/ccsv6/tools/compiler/gcc_msp430_4.9.14r1_167/bin/../lib/gcc/msp430-elf/4.9.1/../../../../msp430-elf/lib/large\libc.a(lib_a-locale.o)
 .debug_line.text.localeconv
                0x00002484       0x17 c:/ti/ccsv6/tools/compiler/gcc_msp430_4.9.14r1_167/bin/../lib/gcc/msp430-elf/4.9.1/../../../../msp430-elf/lib/large\libc.a(lib_a-locale.o)
 .debug_line_end
                0x0000249b        0x0 c:/ti/ccsv6/tools/compiler/gcc_msp430_4.9.14r1_167/bin/../lib/gcc/msp430-elf/4.9.1/../../../../msp430-elf/lib/large\libc.a(lib_a-locale.o)
 .debug_line    0x0000249b      0x178 c:/ti/ccsv6/tools/compiler/gcc_msp430_4.9.14r1_167/bin/../lib/gcc/msp430-elf/4.9.1/../../../../msp430-elf/lib/large\libc.a(lib_a-malloc.o)
 .debug_line.text.malloc
                0x00002613       0x1d c:/ti/ccsv6/tools/compiler/gcc_msp430_4.9.14r1_167/bin/../lib/gcc/msp430-elf/4.9.1/../../../../msp430-elf/lib/large\libc.a(lib_a-malloc.o)
 .debug_line.text.free
                0x00002630       0x1d c:/ti/ccsv6/tools/compiler/gcc_msp430_4.9.14r1_167/bin/../lib/gcc/msp430-elf/4.9.1/../../../../msp430-elf/lib/large\libc.a(lib_a-malloc.o)
 .debug_line_end
                0x0000264d        0x0 c:/ti/ccsv6/tools/compiler/gcc_msp430_4.9.14r1_167/bin/../lib/gcc/msp430-elf/4.9.1/../../../../msp430-elf/lib/large\libc.a(lib_a-malloc.o)
 .debug_line    0x0000264d      0x115 c:/ti/ccsv6/tools/compiler/gcc_msp430_4.9.14r1_167/bin/../lib/gcc/msp430-elf/4.9.1/../../../../msp430-elf/lib/large\libc.a(lib_a-memchr.o)
 .debug_line.text.memchr
                0x00002762       0x35 c:/ti/ccsv6/tools/compiler/gcc_msp430_4.9.14r1_167/bin/../lib/gcc/msp430-elf/4.9.1/../../../../msp430-elf/lib/large\libc.a(lib_a-memchr.o)
 .debug_line_end
                0x00002797        0x0 c:/ti/ccsv6/tools/compiler/gcc_msp430_4.9.14r1_167/bin/../lib/gcc/msp430-elf/4.9.1/../../../../msp430-elf/lib/large\libc.a(lib_a-memchr.o)
 .debug_line    0x00002797      0x115 c:/ti/ccsv6/tools/compiler/gcc_msp430_4.9.14r1_167/bin/../lib/gcc/msp430-elf/4.9.1/../../../../msp430-elf/lib/large\libc.a(lib_a-memcpy.o)
 .debug_line.text.memcpy
                0x000028ac       0x22 c:/ti/ccsv6/tools/compiler/gcc_msp430_4.9.14r1_167/bin/../lib/gcc/msp430-elf/4.9.1/../../../../msp430-elf/lib/large\libc.a(lib_a-memcpy.o)
 .debug_line_end
                0x000028ce        0x0 c:/ti/ccsv6/tools/compiler/gcc_msp430_4.9.14r1_167/bin/../lib/gcc/msp430-elf/4.9.1/../../../../msp430-elf/lib/large\libc.a(lib_a-memcpy.o)
 .debug_line    0x000028ce      0x1e8 c:/ti/ccsv6/tools/compiler/gcc_msp430_4.9.14r1_167/bin/../lib/gcc/msp430-elf/4.9.1/../../../../msp430-elf/lib/large\libc.a(lib_a-mprec.o)
 .debug_line.text._Balloc
                0x00002ab6       0x77 c:/ti/ccsv6/tools/compiler/gcc_msp430_4.9.14r1_167/bin/../lib/gcc/msp430-elf/4.9.1/../../../../msp430-elf/lib/large\libc.a(lib_a-mprec.o)
 .debug_line.text._Bfree
                0x00002b2d       0x3b c:/ti/ccsv6/tools/compiler/gcc_msp430_4.9.14r1_167/bin/../lib/gcc/msp430-elf/4.9.1/../../../../msp430-elf/lib/large\libc.a(lib_a-mprec.o)
 .debug_line.text.__multadd
                0x00002b68       0x95 c:/ti/ccsv6/tools/compiler/gcc_msp430_4.9.14r1_167/bin/../lib/gcc/msp430-elf/4.9.1/../../../../msp430-elf/lib/large\libc.a(lib_a-mprec.o)
 .debug_line.text.__s2b
                0x00002bfd       0xad c:/ti/ccsv6/tools/compiler/gcc_msp430_4.9.14r1_167/bin/../lib/gcc/msp430-elf/4.9.1/../../../../msp430-elf/lib/large\libc.a(lib_a-mprec.o)
 .debug_line.text.__hi0bits
                0x00002caa       0x7d c:/ti/ccsv6/tools/compiler/gcc_msp430_4.9.14r1_167/bin/../lib/gcc/msp430-elf/4.9.1/../../../../msp430-elf/lib/large\libc.a(lib_a-mprec.o)
 .debug_line.text.__lo0bits
                0x00002d27       0xcb c:/ti/ccsv6/tools/compiler/gcc_msp430_4.9.14r1_167/bin/../lib/gcc/msp430-elf/4.9.1/../../../../msp430-elf/lib/large\libc.a(lib_a-mprec.o)
 .debug_line.text.__i2b
                0x00002df2       0x29 c:/ti/ccsv6/tools/compiler/gcc_msp430_4.9.14r1_167/bin/../lib/gcc/msp430-elf/4.9.1/../../../../msp430-elf/lib/large\libc.a(lib_a-mprec.o)
 .debug_line.text.__multiply
                0x00002e1b      0x16b c:/ti/ccsv6/tools/compiler/gcc_msp430_4.9.14r1_167/bin/../lib/gcc/msp430-elf/4.9.1/../../../../msp430-elf/lib/large\libc.a(lib_a-mprec.o)
 .debug_line.text.__pow5mult
                0x00002f86       0x8f c:/ti/ccsv6/tools/compiler/gcc_msp430_4.9.14r1_167/bin/../lib/gcc/msp430-elf/4.9.1/../../../../msp430-elf/lib/large\libc.a(lib_a-mprec.o)
 .debug_line.text.__lshift
                0x00003015       0xf5 c:/ti/ccsv6/tools/compiler/gcc_msp430_4.9.14r1_167/bin/../lib/gcc/msp430-elf/4.9.1/../../../../msp430-elf/lib/large\libc.a(lib_a-mprec.o)
 .debug_line.text.__mcmp
                0x0000310a       0x59 c:/ti/ccsv6/tools/compiler/gcc_msp430_4.9.14r1_167/bin/../lib/gcc/msp430-elf/4.9.1/../../../../msp430-elf/lib/large\libc.a(lib_a-mprec.o)
 .debug_line.text.__mdiff
                0x00003163      0x111 c:/ti/ccsv6/tools/compiler/gcc_msp430_4.9.14r1_167/bin/../lib/gcc/msp430-elf/4.9.1/../../../../msp430-elf/lib/large\libc.a(lib_a-mprec.o)
 .debug_line.text.__ulp
                0x00003274       0x6b c:/ti/ccsv6/tools/compiler/gcc_msp430_4.9.14r1_167/bin/../lib/gcc/msp430-elf/4.9.1/../../../../msp430-elf/lib/large\libc.a(lib_a-mprec.o)
 .debug_line.text.__b2d
                0x000032df       0xc3 c:/ti/ccsv6/tools/compiler/gcc_msp430_4.9.14r1_167/bin/../lib/gcc/msp430-elf/4.9.1/../../../../msp430-elf/lib/large\libc.a(lib_a-mprec.o)
 .debug_line.text.__d2b
                0x000033a2       0xb3 c:/ti/ccsv6/tools/compiler/gcc_msp430_4.9.14r1_167/bin/../lib/gcc/msp430-elf/4.9.1/../../../../msp430-elf/lib/large\libc.a(lib_a-mprec.o)
 .debug_line.text.__ratio
                0x00003455       0x47 c:/ti/ccsv6/tools/compiler/gcc_msp430_4.9.14r1_167/bin/../lib/gcc/msp430-elf/4.9.1/../../../../msp430-elf/lib/large\libc.a(lib_a-mprec.o)
 .debug_line.text._mprec_log10
                0x0000349c       0x35 c:/ti/ccsv6/tools/compiler/gcc_msp430_4.9.14r1_167/bin/../lib/gcc/msp430-elf/4.9.1/../../../../msp430-elf/lib/large\libc.a(lib_a-mprec.o)
 .debug_line.text.__copybits
                0x000034d1       0x41 c:/ti/ccsv6/tools/compiler/gcc_msp430_4.9.14r1_167/bin/../lib/gcc/msp430-elf/4.9.1/../../../../msp430-elf/lib/large\libc.a(lib_a-mprec.o)
 .debug_line.text.__any_on
                0x00003512       0x77 c:/ti/ccsv6/tools/compiler/gcc_msp430_4.9.14r1_167/bin/../lib/gcc/msp430-elf/4.9.1/../../../../msp430-elf/lib/large\libc.a(lib_a-mprec.o)
 .debug_line_end
                0x00003589        0x0 c:/ti/ccsv6/tools/compiler/gcc_msp430_4.9.14r1_167/bin/../lib/gcc/msp430-elf/4.9.1/../../../../msp430-elf/lib/large\libc.a(lib_a-mprec.o)
 .debug_line    0x00003589      0x17e c:/ti/ccsv6/tools/compiler/gcc_msp430_4.9.14r1_167/bin/../lib/gcc/msp430-elf/4.9.1/../../../../msp430-elf/lib/large\libc.a(lib_a-nano-callocr.o)
 .debug_line.text._calloc_r
                0x00003707       0x2f c:/ti/ccsv6/tools/compiler/gcc_msp430_4.9.14r1_167/bin/../lib/gcc/msp430-elf/4.9.1/../../../../msp430-elf/lib/large\libc.a(lib_a-nano-callocr.o)
 .debug_line_end
                0x00003736        0x0 c:/ti/ccsv6/tools/compiler/gcc_msp430_4.9.14r1_167/bin/../lib/gcc/msp430-elf/4.9.1/../../../../msp430-elf/lib/large\libc.a(lib_a-nano-callocr.o)
 .debug_line    0x00003736      0x134 c:/ti/ccsv6/tools/compiler/gcc_msp430_4.9.14r1_167/bin/../lib/gcc/msp430-elf/4.9.1/../../../../msp430-elf/lib/large\libc.a(lib_a-nano-freer.o)
 .debug_line.text._free_r
                0x0000386a       0xcd c:/ti/ccsv6/tools/compiler/gcc_msp430_4.9.14r1_167/bin/../lib/gcc/msp430-elf/4.9.1/../../../../msp430-elf/lib/large\libc.a(lib_a-nano-freer.o)
 .debug_line_end
                0x00003937        0x0 c:/ti/ccsv6/tools/compiler/gcc_msp430_4.9.14r1_167/bin/../lib/gcc/msp430-elf/4.9.1/../../../../msp430-elf/lib/large\libc.a(lib_a-nano-freer.o)
 .debug_line    0x00003937      0x17d c:/ti/ccsv6/tools/compiler/gcc_msp430_4.9.14r1_167/bin/../lib/gcc/msp430-elf/4.9.1/../../../../msp430-elf/lib/large\libc.a(lib_a-nano-mallocr.o)
 .debug_line.text._malloc_r
                0x00003ab4       0xe7 c:/ti/ccsv6/tools/compiler/gcc_msp430_4.9.14r1_167/bin/../lib/gcc/msp430-elf/4.9.1/../../../../msp430-elf/lib/large\libc.a(lib_a-nano-mallocr.o)
 .debug_line_end
                0x00003b9b        0x0 c:/ti/ccsv6/tools/compiler/gcc_msp430_4.9.14r1_167/bin/../lib/gcc/msp430-elf/4.9.1/../../../../msp430-elf/lib/large\libc.a(lib_a-nano-mallocr.o)
 .debug_line    0x00003b9b      0x11a c:/ti/ccsv6/tools/compiler/gcc_msp430_4.9.14r1_167/bin/../lib/gcc/msp430-elf/4.9.1/../../../../msp430-elf/lib/large\libc.a(lib_a-s_fpclassify.o)
 .debug_line.text.__fpclassifyd
                0x00003cb5       0x76 c:/ti/ccsv6/tools/compiler/gcc_msp430_4.9.14r1_167/bin/../lib/gcc/msp430-elf/4.9.1/../../../../msp430-elf/lib/large\libc.a(lib_a-s_fpclassify.o)
 .debug_line_end
                0x00003d2b        0x0 c:/ti/ccsv6/tools/compiler/gcc_msp430_4.9.14r1_167/bin/../lib/gcc/msp430-elf/4.9.1/../../../../msp430-elf/lib/large\libc.a(lib_a-s_fpclassify.o)
 .debug_line    0x00003d2b      0x175 c:/ti/ccsv6/tools/compiler/gcc_msp430_4.9.14r1_167/bin/../lib/gcc/msp430-elf/4.9.1/../../../../msp430-elf/lib/large\libc.a(lib_a-sbrkr.o)
 .debug_line.text._sbrk_r
                0x00003ea0       0x34 c:/ti/ccsv6/tools/compiler/gcc_msp430_4.9.14r1_167/bin/../lib/gcc/msp430-elf/4.9.1/../../../../msp430-elf/lib/large\libc.a(lib_a-sbrkr.o)
 .debug_line_end
                0x00003ed4        0x0 c:/ti/ccsv6/tools/compiler/gcc_msp430_4.9.14r1_167/bin/../lib/gcc/msp430-elf/4.9.1/../../../../msp430-elf/lib/large\libc.a(lib_a-sbrkr.o)
 .debug_line    0x00003ed4       0xb0 c:/ti/ccsv6/tools/compiler/gcc_msp430_4.9.14r1_167/bin/../lib/gcc/msp430-elf/4.9.1/../../../../msp430-elf/lib/large\libc.a(lib_a-strcmp.o)
 .debug_line.text.strcmp
                0x00003f84       0x3a c:/ti/ccsv6/tools/compiler/gcc_msp430_4.9.14r1_167/bin/../lib/gcc/msp430-elf/4.9.1/../../../../msp430-elf/lib/large\libc.a(lib_a-strcmp.o)
 .debug_line_end
                0x00003fbe        0x0 c:/ti/ccsv6/tools/compiler/gcc_msp430_4.9.14r1_167/bin/../lib/gcc/msp430-elf/4.9.1/../../../../msp430-elf/lib/large\libc.a(lib_a-strcmp.o)
 .debug_line    0x00003fbe      0x115 c:/ti/ccsv6/tools/compiler/gcc_msp430_4.9.14r1_167/bin/../lib/gcc/msp430-elf/4.9.1/../../../../msp430-elf/lib/large\libc.a(lib_a-strlen.o)
 .debug_line.text.strlen
                0x000040d3       0x22 c:/ti/ccsv6/tools/compiler/gcc_msp430_4.9.14r1_167/bin/../lib/gcc/msp430-elf/4.9.1/../../../../msp430-elf/lib/large\libc.a(lib_a-strlen.o)
 .debug_line_end
                0x000040f5        0x0 c:/ti/ccsv6/tools/compiler/gcc_msp430_4.9.14r1_167/bin/../lib/gcc/msp430-elf/4.9.1/../../../../msp430-elf/lib/large\libc.a(lib_a-strlen.o)
 .debug_line    0x000040f5      0x20f c:/ti/ccsv6/tools/compiler/gcc_msp430_4.9.14r1_167/bin/../lib/gcc/msp430-elf/4.9.1/../../../../msp430-elf/lib/large\libc.a(lib_a-svfiprintf.o)
 .debug_line.text.__ssprint_r
                0x00004304      0x11d c:/ti/ccsv6/tools/compiler/gcc_msp430_4.9.14r1_167/bin/../lib/gcc/msp430-elf/4.9.1/../../../../msp430-elf/lib/large\libc.a(lib_a-svfiprintf.o)
 .debug_line.text._svfiprintf_r
                0x00004421      0x730 c:/ti/ccsv6/tools/compiler/gcc_msp430_4.9.14r1_167/bin/../lib/gcc/msp430-elf/4.9.1/../../../../msp430-elf/lib/large\libc.a(lib_a-svfiprintf.o)
 .debug_line_end
                0x00004b51        0x0 c:/ti/ccsv6/tools/compiler/gcc_msp430_4.9.14r1_167/bin/../lib/gcc/msp430-elf/4.9.1/../../../../msp430-elf/lib/large\libc.a(lib_a-svfiprintf.o)
 .debug_line    0x00004b51      0x116 c:/ti/ccsv6/tools/compiler/gcc_msp430_4.9.14r1_167/bin/../lib/gcc/msp430-elf/4.9.1/../../../../msp430-elf/lib/large\libc.a(lib_a-memmove.o)
 .debug_line.text.memmove
                0x00004c67       0x40 c:/ti/ccsv6/tools/compiler/gcc_msp430_4.9.14r1_167/bin/../lib/gcc/msp430-elf/4.9.1/../../../../msp430-elf/lib/large\libc.a(lib_a-memmove.o)
 .debug_line_end
                0x00004ca7        0x0 c:/ti/ccsv6/tools/compiler/gcc_msp430_4.9.14r1_167/bin/../lib/gcc/msp430-elf/4.9.1/../../../../msp430-elf/lib/large\libc.a(lib_a-memmove.o)
 .debug_line    0x00004ca7      0x17e c:/ti/ccsv6/tools/compiler/gcc_msp430_4.9.14r1_167/bin/../lib/gcc/msp430-elf/4.9.1/../../../../msp430-elf/lib/large\libc.a(lib_a-nano-reallocr.o)
 .debug_line.text._realloc_r
                0x00004e25       0x59 c:/ti/ccsv6/tools/compiler/gcc_msp430_4.9.14r1_167/bin/../lib/gcc/msp430-elf/4.9.1/../../../../msp430-elf/lib/large\libc.a(lib_a-nano-reallocr.o)
 .debug_line_end
                0x00004e7e        0x0 c:/ti/ccsv6/tools/compiler/gcc_msp430_4.9.14r1_167/bin/../lib/gcc/msp430-elf/4.9.1/../../../../msp430-elf/lib/large\libc.a(lib_a-nano-reallocr.o)
 .debug_line    0x00004e7e      0x176 c:/ti/ccsv6/tools/compiler/gcc_msp430_4.9.14r1_167/bin/../lib/gcc/msp430-elf/4.9.1/../../../../msp430-elf/lib/large\libc.a(lib_a-reent.o)
 .debug_line.text.cleanup_glue
                0x00004ff4       0x28 c:/ti/ccsv6/tools/compiler/gcc_msp430_4.9.14r1_167/bin/../lib/gcc/msp430-elf/4.9.1/../../../../msp430-elf/lib/large\libc.a(lib_a-reent.o)
 .debug_line.text._reclaim_reent
                0x0000501c       0xf8 c:/ti/ccsv6/tools/compiler/gcc_msp430_4.9.14r1_167/bin/../lib/gcc/msp430-elf/4.9.1/../../../../msp430-elf/lib/large\libc.a(lib_a-reent.o)
 .debug_line_end
                0x00005114        0x0 c:/ti/ccsv6/tools/compiler/gcc_msp430_4.9.14r1_167/bin/../lib/gcc/msp430-elf/4.9.1/../../../../msp430-elf/lib/large\libc.a(lib_a-reent.o)
 .debug_line    0x00005114      0x134 c:/ti/ccsv6/tools/compiler/gcc_msp430_4.9.14r1_167/bin/../lib/gcc/msp430-elf/4.9.1/../../../../msp430-elf/lib/large\libc.a(lib_a-nano-msizer.o)
 .debug_line.text._malloc_usable_size_r
                0x00005248       0x2f c:/ti/ccsv6/tools/compiler/gcc_msp430_4.9.14r1_167/bin/../lib/gcc/msp430-elf/4.9.1/../../../../msp430-elf/lib/large\libc.a(lib_a-nano-msizer.o)
 .debug_line_end
                0x00005277        0x0 c:/ti/ccsv6/tools/compiler/gcc_msp430_4.9.14r1_167/bin/../lib/gcc/msp430-elf/4.9.1/../../../../msp430-elf/lib/large\libc.a(lib_a-nano-msizer.o)
 .debug_line    0x00005277       0x66 c:/ti/ccsv6/tools/compiler/gcc_msp430_4.9.14r1_167/bin/../lib/gcc/msp430-elf/4.9.1/large\libgcc.a(_addsub_df.o)
 .debug_line.text._fpadd_parts
                0x000052dd      0x13d c:/ti/ccsv6/tools/compiler/gcc_msp430_4.9.14r1_167/bin/../lib/gcc/msp430-elf/4.9.1/large\libgcc.a(_addsub_df.o)
 .debug_line.text.__adddf3
                0x0000541a       0x3b c:/ti/ccsv6/tools/compiler/gcc_msp430_4.9.14r1_167/bin/../lib/gcc/msp430-elf/4.9.1/large\libgcc.a(_addsub_df.o)
 .debug_line.text.__subdf3
                0x00005455       0x41 c:/ti/ccsv6/tools/compiler/gcc_msp430_4.9.14r1_167/bin/../lib/gcc/msp430-elf/4.9.1/large\libgcc.a(_addsub_df.o)
 .debug_line_end
                0x00005496        0x0 c:/ti/ccsv6/tools/compiler/gcc_msp430_4.9.14r1_167/bin/../lib/gcc/msp430-elf/4.9.1/large\libgcc.a(_addsub_df.o)
 .debug_line    0x00005496       0x66 c:/ti/ccsv6/tools/compiler/gcc_msp430_4.9.14r1_167/bin/../lib/gcc/msp430-elf/4.9.1/large\libgcc.a(_mul_df.o)
 .debug_line.text.__muldf3
                0x000054fc      0x164 c:/ti/ccsv6/tools/compiler/gcc_msp430_4.9.14r1_167/bin/../lib/gcc/msp430-elf/4.9.1/large\libgcc.a(_mul_df.o)
 .debug_line_end
                0x00005660        0x0 c:/ti/ccsv6/tools/compiler/gcc_msp430_4.9.14r1_167/bin/../lib/gcc/msp430-elf/4.9.1/large\libgcc.a(_mul_df.o)
 .debug_line    0x00005660       0x66 c:/ti/ccsv6/tools/compiler/gcc_msp430_4.9.14r1_167/bin/../lib/gcc/msp430-elf/4.9.1/large\libgcc.a(_div_df.o)
 .debug_line.text.__divdf3
                0x000056c6      0x104 c:/ti/ccsv6/tools/compiler/gcc_msp430_4.9.14r1_167/bin/../lib/gcc/msp430-elf/4.9.1/large\libgcc.a(_div_df.o)
 .debug_line_end
                0x000057ca        0x0 c:/ti/ccsv6/tools/compiler/gcc_msp430_4.9.14r1_167/bin/../lib/gcc/msp430-elf/4.9.1/large\libgcc.a(_div_df.o)
 .debug_line    0x000057ca       0x66 c:/ti/ccsv6/tools/compiler/gcc_msp430_4.9.14r1_167/bin/../lib/gcc/msp430-elf/4.9.1/large\libgcc.a(_eq_df.o)
 .debug_line.text.__eqdf2
                0x00005830       0x4d c:/ti/ccsv6/tools/compiler/gcc_msp430_4.9.14r1_167/bin/../lib/gcc/msp430-elf/4.9.1/large\libgcc.a(_eq_df.o)
 .debug_line_end
                0x0000587d        0x0 c:/ti/ccsv6/tools/compiler/gcc_msp430_4.9.14r1_167/bin/../lib/gcc/msp430-elf/4.9.1/large\libgcc.a(_eq_df.o)
 .debug_line    0x0000587d       0x66 c:/ti/ccsv6/tools/compiler/gcc_msp430_4.9.14r1_167/bin/../lib/gcc/msp430-elf/4.9.1/large\libgcc.a(_ne_df.o)
 .debug_line.text.__nedf2
                0x000058e3       0x4d c:/ti/ccsv6/tools/compiler/gcc_msp430_4.9.14r1_167/bin/../lib/gcc/msp430-elf/4.9.1/large\libgcc.a(_ne_df.o)
 .debug_line_end
                0x00005930        0x0 c:/ti/ccsv6/tools/compiler/gcc_msp430_4.9.14r1_167/bin/../lib/gcc/msp430-elf/4.9.1/large\libgcc.a(_ne_df.o)
 .debug_line    0x00005930       0x66 c:/ti/ccsv6/tools/compiler/gcc_msp430_4.9.14r1_167/bin/../lib/gcc/msp430-elf/4.9.1/large\libgcc.a(_gt_df.o)
 .debug_line.text.__gtdf2
                0x00005996       0x4d c:/ti/ccsv6/tools/compiler/gcc_msp430_4.9.14r1_167/bin/../lib/gcc/msp430-elf/4.9.1/large\libgcc.a(_gt_df.o)
 .debug_line_end
                0x000059e3        0x0 c:/ti/ccsv6/tools/compiler/gcc_msp430_4.9.14r1_167/bin/../lib/gcc/msp430-elf/4.9.1/large\libgcc.a(_gt_df.o)
 .debug_line    0x000059e3       0x66 c:/ti/ccsv6/tools/compiler/gcc_msp430_4.9.14r1_167/bin/../lib/gcc/msp430-elf/4.9.1/large\libgcc.a(_ge_df.o)
 .debug_line.text.__gedf2
                0x00005a49       0x4d c:/ti/ccsv6/tools/compiler/gcc_msp430_4.9.14r1_167/bin/../lib/gcc/msp430-elf/4.9.1/large\libgcc.a(_ge_df.o)
 .debug_line_end
                0x00005a96        0x0 c:/ti/ccsv6/tools/compiler/gcc_msp430_4.9.14r1_167/bin/../lib/gcc/msp430-elf/4.9.1/large\libgcc.a(_ge_df.o)
 .debug_line    0x00005a96       0x66 c:/ti/ccsv6/tools/compiler/gcc_msp430_4.9.14r1_167/bin/../lib/gcc/msp430-elf/4.9.1/large\libgcc.a(_lt_df.o)
 .debug_line.text.__ltdf2
                0x00005afc       0x4d c:/ti/ccsv6/tools/compiler/gcc_msp430_4.9.14r1_167/bin/../lib/gcc/msp430-elf/4.9.1/large\libgcc.a(_lt_df.o)
 .debug_line_end
                0x00005b49        0x0 c:/ti/ccsv6/tools/compiler/gcc_msp430_4.9.14r1_167/bin/../lib/gcc/msp430-elf/4.9.1/large\libgcc.a(_lt_df.o)
 .debug_line    0x00005b49       0x66 c:/ti/ccsv6/tools/compiler/gcc_msp430_4.9.14r1_167/bin/../lib/gcc/msp430-elf/4.9.1/large\libgcc.a(_si_to_df.o)
 .debug_line.text.__floatsidf
                0x00005baf       0x73 c:/ti/ccsv6/tools/compiler/gcc_msp430_4.9.14r1_167/bin/../lib/gcc/msp430-elf/4.9.1/large\libgcc.a(_si_to_df.o)
 .debug_line_end
                0x00005c22        0x0 c:/ti/ccsv6/tools/compiler/gcc_msp430_4.9.14r1_167/bin/../lib/gcc/msp430-elf/4.9.1/large\libgcc.a(_si_to_df.o)
 .debug_line    0x00005c22       0x66 c:/ti/ccsv6/tools/compiler/gcc_msp430_4.9.14r1_167/bin/../lib/gcc/msp430-elf/4.9.1/large\libgcc.a(_df_to_si.o)
 .debug_line.text.__fixdfsi
                0x00005c88       0x5f c:/ti/ccsv6/tools/compiler/gcc_msp430_4.9.14r1_167/bin/../lib/gcc/msp430-elf/4.9.1/large\libgcc.a(_df_to_si.o)
 .debug_line_end
                0x00005ce7        0x0 c:/ti/ccsv6/tools/compiler/gcc_msp430_4.9.14r1_167/bin/../lib/gcc/msp430-elf/4.9.1/large\libgcc.a(_df_to_si.o)
 .debug_line    0x00005ce7       0x66 c:/ti/ccsv6/tools/compiler/gcc_msp430_4.9.14r1_167/bin/../lib/gcc/msp430-elf/4.9.1/large\libgcc.a(_thenan_df.o)
 .debug_line_end
                0x00005d4d        0x0 c:/ti/ccsv6/tools/compiler/gcc_msp430_4.9.14r1_167/bin/../lib/gcc/msp430-elf/4.9.1/large\libgcc.a(_thenan_df.o)
 .debug_line    0x00005d4d       0x66 c:/ti/ccsv6/tools/compiler/gcc_msp430_4.9.14r1_167/bin/../lib/gcc/msp430-elf/4.9.1/large\libgcc.a(_usi_to_df.o)
 .debug_line.text.__floatunsidf
                0x00005db3       0x55 c:/ti/ccsv6/tools/compiler/gcc_msp430_4.9.14r1_167/bin/../lib/gcc/msp430-elf/4.9.1/large\libgcc.a(_usi_to_df.o)
 .debug_line_end
                0x00005e08        0x0 c:/ti/ccsv6/tools/compiler/gcc_msp430_4.9.14r1_167/bin/../lib/gcc/msp430-elf/4.9.1/large\libgcc.a(_usi_to_df.o)
 .debug_line    0x00005e08       0x7e c:/ti/ccsv6/tools/compiler/gcc_msp430_4.9.14r1_167/bin/../lib/gcc/msp430-elf/4.9.1/large\libgcc.a(lib2divHI.o)
 .debug_line.text.udivmodhi4
                0x00005e86       0x74 c:/ti/ccsv6/tools/compiler/gcc_msp430_4.9.14r1_167/bin/../lib/gcc/msp430-elf/4.9.1/large\libgcc.a(lib2divHI.o)
 .debug_line.text.__divhi3
                0x00005efa       0x58 c:/ti/ccsv6/tools/compiler/gcc_msp430_4.9.14r1_167/bin/../lib/gcc/msp430-elf/4.9.1/large\libgcc.a(lib2divHI.o)
 .debug_line.text.__modhi3
                0x00005f52       0x41 c:/ti/ccsv6/tools/compiler/gcc_msp430_4.9.14r1_167/bin/../lib/gcc/msp430-elf/4.9.1/large\libgcc.a(lib2divHI.o)
 .debug_line.text.__udivhi3
                0x00005f93       0x1d c:/ti/ccsv6/tools/compiler/gcc_msp430_4.9.14r1_167/bin/../lib/gcc/msp430-elf/4.9.1/large\libgcc.a(lib2divHI.o)
 .debug_line.text.__umodhi3
                0x00005fb0       0x1d c:/ti/ccsv6/tools/compiler/gcc_msp430_4.9.14r1_167/bin/../lib/gcc/msp430-elf/4.9.1/large\libgcc.a(lib2divHI.o)
 .debug_line_end
                0x00005fcd        0x0 c:/ti/ccsv6/tools/compiler/gcc_msp430_4.9.14r1_167/bin/../lib/gcc/msp430-elf/4.9.1/large\libgcc.a(lib2divHI.o)
 .debug_line    0x00005fcd       0x7e c:/ti/ccsv6/tools/compiler/gcc_msp430_4.9.14r1_167/bin/../lib/gcc/msp430-elf/4.9.1/large\libgcc.a(lib2divSI.o)
 .debug_line.text.udivmodsi4
                0x0000604b       0x74 c:/ti/ccsv6/tools/compiler/gcc_msp430_4.9.14r1_167/bin/../lib/gcc/msp430-elf/4.9.1/large\libgcc.a(lib2divSI.o)
 .debug_line.text.__divsi3
                0x000060bf       0x58 c:/ti/ccsv6/tools/compiler/gcc_msp430_4.9.14r1_167/bin/../lib/gcc/msp430-elf/4.9.1/large\libgcc.a(lib2divSI.o)
 .debug_line.text.__modsi3
                0x00006117       0x41 c:/ti/ccsv6/tools/compiler/gcc_msp430_4.9.14r1_167/bin/../lib/gcc/msp430-elf/4.9.1/large\libgcc.a(lib2divSI.o)
 .debug_line.text.__udivsi3
                0x00006158       0x1d c:/ti/ccsv6/tools/compiler/gcc_msp430_4.9.14r1_167/bin/../lib/gcc/msp430-elf/4.9.1/large\libgcc.a(lib2divSI.o)
 .debug_line.text.__umodsi3
                0x00006175       0x1d c:/ti/ccsv6/tools/compiler/gcc_msp430_4.9.14r1_167/bin/../lib/gcc/msp430-elf/4.9.1/large\libgcc.a(lib2divSI.o)
 .debug_line_end
                0x00006192        0x0 c:/ti/ccsv6/tools/compiler/gcc_msp430_4.9.14r1_167/bin/../lib/gcc/msp430-elf/4.9.1/large\libgcc.a(lib2divSI.o)
 .debug_line    0x00006192       0x68 c:/ti/ccsv6/tools/compiler/gcc_msp430_4.9.14r1_167/bin/../lib/gcc/msp430-elf/4.9.1/large\libgcc.a(_muldi3.o)
 .debug_line.text.__muldi3
                0x000061fa       0x55 c:/ti/ccsv6/tools/compiler/gcc_msp430_4.9.14r1_167/bin/../lib/gcc/msp430-elf/4.9.1/large\libgcc.a(_muldi3.o)
 .debug_line_end
                0x0000624f        0x0 c:/ti/ccsv6/tools/compiler/gcc_msp430_4.9.14r1_167/bin/../lib/gcc/msp430-elf/4.9.1/large\libgcc.a(_muldi3.o)
 .debug_line    0x0000624f       0x68 c:/ti/ccsv6/tools/compiler/gcc_msp430_4.9.14r1_167/bin/../lib/gcc/msp430-elf/4.9.1/large\libgcc.a(_lshrdi3.o)
 .debug_line.text.__lshrdi3
                0x000062b7       0x53 c:/ti/ccsv6/tools/compiler/gcc_msp430_4.9.14r1_167/bin/../lib/gcc/msp430-elf/4.9.1/large\libgcc.a(_lshrdi3.o)
 .debug_line_end
                0x0000630a        0x0 c:/ti/ccsv6/tools/compiler/gcc_msp430_4.9.14r1_167/bin/../lib/gcc/msp430-elf/4.9.1/large\libgcc.a(_lshrdi3.o)
 .debug_line    0x0000630a       0x68 c:/ti/ccsv6/tools/compiler/gcc_msp430_4.9.14r1_167/bin/../lib/gcc/msp430-elf/4.9.1/large\libgcc.a(_ashldi3.o)
 .debug_line.text.__ashldi3
                0x00006372       0x53 c:/ti/ccsv6/tools/compiler/gcc_msp430_4.9.14r1_167/bin/../lib/gcc/msp430-elf/4.9.1/large\libgcc.a(_ashldi3.o)
 .debug_line_end
                0x000063c5        0x0 c:/ti/ccsv6/tools/compiler/gcc_msp430_4.9.14r1_167/bin/../lib/gcc/msp430-elf/4.9.1/large\libgcc.a(_ashldi3.o)
 .debug_line    0x000063c5       0xb2 c:/ti/ccsv6/tools/compiler/gcc_msp430_4.9.14r1_167/bin/../lib/gcc/msp430-elf/4.9.1/large\libgcc.a(_clzsi2.o)
 .debug_line.text.__clzsi2
                0x00006477       0x2f c:/ti/ccsv6/tools/compiler/gcc_msp430_4.9.14r1_167/bin/../lib/gcc/msp430-elf/4.9.1/large\libgcc.a(_clzsi2.o)
 .debug_line_end
                0x000064a6        0x0 c:/ti/ccsv6/tools/compiler/gcc_msp430_4.9.14r1_167/bin/../lib/gcc/msp430-elf/4.9.1/large\libgcc.a(_clzsi2.o)
 .debug_line    0x000064a6       0x66 c:/ti/ccsv6/tools/compiler/gcc_msp430_4.9.14r1_167/bin/../lib/gcc/msp430-elf/4.9.1/large\libgcc.a(_pack_df.o)
 .debug_line.text.__pack_d
                0x0000650c      0x104 c:/ti/ccsv6/tools/compiler/gcc_msp430_4.9.14r1_167/bin/../lib/gcc/msp430-elf/4.9.1/large\libgcc.a(_pack_df.o)
 .debug_line_end
                0x00006610        0x0 c:/ti/ccsv6/tools/compiler/gcc_msp430_4.9.14r1_167/bin/../lib/gcc/msp430-elf/4.9.1/large\libgcc.a(_pack_df.o)
 .debug_line    0x00006610       0x66 c:/ti/ccsv6/tools/compiler/gcc_msp430_4.9.14r1_167/bin/../lib/gcc/msp430-elf/4.9.1/large\libgcc.a(_unpack_df.o)
 .debug_line.text.__unpack_d
                0x00006676       0xa7 c:/ti/ccsv6/tools/compiler/gcc_msp430_4.9.14r1_167/bin/../lib/gcc/msp430-elf/4.9.1/large\libgcc.a(_unpack_df.o)
 .debug_line_end
                0x0000671d        0x0 c:/ti/ccsv6/tools/compiler/gcc_msp430_4.9.14r1_167/bin/../lib/gcc/msp430-elf/4.9.1/large\libgcc.a(_unpack_df.o)
 .debug_line    0x0000671d       0x66 c:/ti/ccsv6/tools/compiler/gcc_msp430_4.9.14r1_167/bin/../lib/gcc/msp430-elf/4.9.1/large\libgcc.a(_fpcmp_parts_df.o)
 .debug_line.text.__fpcmp_parts_d
                0x00006783       0xa5 c:/ti/ccsv6/tools/compiler/gcc_msp430_4.9.14r1_167/bin/../lib/gcc/msp430-elf/4.9.1/large\libgcc.a(_fpcmp_parts_df.o)
 .debug_line_end
                0x00006828        0x0 c:/ti/ccsv6/tools/compiler/gcc_msp430_4.9.14r1_167/bin/../lib/gcc/msp430-elf/4.9.1/large\libgcc.a(_fpcmp_parts_df.o)
 .debug_line    0x00006828       0x79 c:/ti/ccsv6/tools/compiler/gcc_msp430_4.9.14r1_167/bin/../lib/gcc/msp430-elf/4.9.1/large\libgcc.a(lib2mul.o)
 .debug_line.text.__mulhi3
                0x000068a1       0x58 c:/ti/ccsv6/tools/compiler/gcc_msp430_4.9.14r1_167/bin/../lib/gcc/msp430-elf/4.9.1/large\libgcc.a(lib2mul.o)
 .debug_line.text.__mulqi3
                0x000068f9       0x58 c:/ti/ccsv6/tools/compiler/gcc_msp430_4.9.14r1_167/bin/../lib/gcc/msp430-elf/4.9.1/large\libgcc.a(lib2mul.o)
 .debug_line.text.__mulsi3
                0x00006951       0x58 c:/ti/ccsv6/tools/compiler/gcc_msp430_4.9.14r1_167/bin/../lib/gcc/msp430-elf/4.9.1/large\libgcc.a(lib2mul.o)
 .debug_line_end
                0x000069a9        0x0 c:/ti/ccsv6/tools/compiler/gcc_msp430_4.9.14r1_167/bin/../lib/gcc/msp430-elf/4.9.1/large\libgcc.a(lib2mul.o)
 .debug_line    0x000069a9       0x68 c:/ti/ccsv6/tools/compiler/gcc_msp430_4.9.14r1_167/bin/../lib/gcc/msp430-elf/4.9.1/large\libgcc.a(_clz.o)
 .debug_line_end
                0x00006a11        0x0 c:/ti/ccsv6/tools/compiler/gcc_msp430_4.9.14r1_167/bin/../lib/gcc/msp430-elf/4.9.1/large\libgcc.a(_clz.o)
 .debug_line    0x00006a11       0x8a c:/ti/ccsv6/tools/compiler/gcc_msp430_4.9.14r1_167/bin/../lib/gcc/msp430-elf/4.9.1/../../../../msp430-elf/lib/large\libcrt.a(crt_bss.o)
 .debug_line    0x00006a9b       0x90 c:/ti/ccsv6/tools/compiler/gcc_msp430_4.9.14r1_167/bin/../lib/gcc/msp430-elf/4.9.1/../../../../msp430-elf/lib/large\libcrt.a(crt_movedata.o)
 .debug_line    0x00006b2b       0x7e c:/ti/ccsv6/tools/compiler/gcc_msp430_4.9.14r1_167/bin/../lib/gcc/msp430-elf/4.9.1/../../../../msp430-elf/lib/large\libcrt.a(crt_main.o)
 .debug_line    0x00006ba9       0xa9 c:/ti/ccsv6/tools/compiler/gcc_msp430_4.9.14r1_167/bin/../lib/gcc/msp430-elf/4.9.1/../../../../msp430-elf/lib/large\libnosys.a(sbrk.o)
 .debug_line    0x00006c52       0xe1 c:/ti/ccsv6/tools/compiler/gcc_msp430_4.9.14r1_167/bin/../lib/gcc/msp430-elf/4.9.1/../../../../msp430-elf/lib/large\libnosys.a(write.o)
 .debug_line    0x00006d33       0x76 c:/ti/ccsv6/tools/compiler/gcc_msp430_4.9.14r1_167/bin/../lib/gcc/msp430-elf/4.9.1/../../../../msp430-elf/lib/large\libnosys.a(cio.o)
 .debug_line    0x00006da9      0x109 c:/ti/ccsv6/tools/compiler/gcc_msp430_4.9.14r1_167/bin/../lib/gcc/msp430-elf/4.9.1/../../../../msp430-elf/lib/large\libc.a(lib_a-abort.o)
 .debug_line.text.abort
                0x00006eb2       0x1c c:/ti/ccsv6/tools/compiler/gcc_msp430_4.9.14r1_167/bin/../lib/gcc/msp430-elf/4.9.1/../../../../msp430-elf/lib/large\libc.a(lib_a-abort.o)
 .debug_line_end
                0x00006ece        0x0 c:/ti/ccsv6/tools/compiler/gcc_msp430_4.9.14r1_167/bin/../lib/gcc/msp430-elf/4.9.1/../../../../msp430-elf/lib/large\libc.a(lib_a-abort.o)
 .debug_line    0x00006ece      0x19b c:/ti/ccsv6/tools/compiler/gcc_msp430_4.9.14r1_167/bin/../lib/gcc/msp430-elf/4.9.1/../../../../msp430-elf/lib/large\libc.a(lib_a-signal.o)
 .debug_line.text._init_signal_r
                0x00007069       0x41 c:/ti/ccsv6/tools/compiler/gcc_msp430_4.9.14r1_167/bin/../lib/gcc/msp430-elf/4.9.1/../../../../msp430-elf/lib/large\libc.a(lib_a-signal.o)
 .debug_line.text._signal_r
                0x000070aa       0x47 c:/ti/ccsv6/tools/compiler/gcc_msp430_4.9.14r1_167/bin/../lib/gcc/msp430-elf/4.9.1/../../../../msp430-elf/lib/large\libc.a(lib_a-signal.o)
 .debug_line.text._raise_r
                0x000070f1       0x71 c:/ti/ccsv6/tools/compiler/gcc_msp430_4.9.14r1_167/bin/../lib/gcc/msp430-elf/4.9.1/../../../../msp430-elf/lib/large\libc.a(lib_a-signal.o)
 .debug_line.text.__sigtramp_r
                0x00007162       0x6f c:/ti/ccsv6/tools/compiler/gcc_msp430_4.9.14r1_167/bin/../lib/gcc/msp430-elf/4.9.1/../../../../msp430-elf/lib/large\libc.a(lib_a-signal.o)
 .debug_line.text.raise
                0x000071d1       0x1d c:/ti/ccsv6/tools/compiler/gcc_msp430_4.9.14r1_167/bin/../lib/gcc/msp430-elf/4.9.1/../../../../msp430-elf/lib/large\libc.a(lib_a-signal.o)
 .debug_line.text.signal
                0x000071ee       0x1d c:/ti/ccsv6/tools/compiler/gcc_msp430_4.9.14r1_167/bin/../lib/gcc/msp430-elf/4.9.1/../../../../msp430-elf/lib/large\libc.a(lib_a-signal.o)
 .debug_line.text._init_signal
                0x0000720b       0x1d c:/ti/ccsv6/tools/compiler/gcc_msp430_4.9.14r1_167/bin/../lib/gcc/msp430-elf/4.9.1/../../../../msp430-elf/lib/large\libc.a(lib_a-signal.o)
 .debug_line.text.__sigtramp
                0x00007228       0x1d c:/ti/ccsv6/tools/compiler/gcc_msp430_4.9.14r1_167/bin/../lib/gcc/msp430-elf/4.9.1/../../../../msp430-elf/lib/large\libc.a(lib_a-signal.o)
 .debug_line_end
                0x00007245        0x0 c:/ti/ccsv6/tools/compiler/gcc_msp430_4.9.14r1_167/bin/../lib/gcc/msp430-elf/4.9.1/../../../../msp430-elf/lib/large\libc.a(lib_a-signal.o)
 .debug_line    0x00007245      0x18e c:/ti/ccsv6/tools/compiler/gcc_msp430_4.9.14r1_167/bin/../lib/gcc/msp430-elf/4.9.1/../../../../msp430-elf/lib/large\libc.a(lib_a-signalr.o)
 .debug_line.text._kill_r
                0x000073d3       0x34 c:/ti/ccsv6/tools/compiler/gcc_msp430_4.9.14r1_167/bin/../lib/gcc/msp430-elf/4.9.1/../../../../msp430-elf/lib/large\libc.a(lib_a-signalr.o)
 .debug_line.text._getpid_r
                0x00007407       0x1d c:/ti/ccsv6/tools/compiler/gcc_msp430_4.9.14r1_167/bin/../lib/gcc/msp430-elf/4.9.1/../../../../msp430-elf/lib/large\libc.a(lib_a-signalr.o)
 .debug_line_end
                0x00007424        0x0 c:/ti/ccsv6/tools/compiler/gcc_msp430_4.9.14r1_167/bin/../lib/gcc/msp430-elf/4.9.1/../../../../msp430-elf/lib/large\libc.a(lib_a-signalr.o)
 .debug_line    0x00007424       0xb3 c:/ti/ccsv6/tools/compiler/gcc_msp430_4.9.14r1_167/bin/../lib/gcc/msp430-elf/4.9.1/../../../../msp430-elf/lib/large\libnosys.a(nosyscalls.o)
 .debug_line    0x000074d7      0x137 c:/ti/ccsv6/tools/compiler/gcc_msp430_4.9.14r1_167/bin/../lib/gcc/msp430-elf/4.9.1/../../../../msp430-elf/lib/large\libc.a(lib_a-errno.o)
 .debug_line.text.__errno
                0x0000760e       0x16 c:/ti/ccsv6/tools/compiler/gcc_msp430_4.9.14r1_167/bin/../lib/gcc/msp430-elf/4.9.1/../../../../msp430-elf/lib/large\libc.a(lib_a-errno.o)
 .debug_line_end
                0x00007624        0x0 c:/ti/ccsv6/tools/compiler/gcc_msp430_4.9.14r1_167/bin/../lib/gcc/msp430-elf/4.9.1/../../../../msp430-elf/lib/large\libc.a(lib_a-errno.o)
 .debug_line    0x00007624       0x8d c:/ti/ccsv6/tools/compiler/gcc_msp430_4.9.14r1_167/bin/../lib/gcc/msp430-elf/4.9.1/../../../../msp430-elf/lib/large/crtn.o

.debug_frame    0x00000000     0x1094
 *(.debug_frame)
 .debug_frame   0x00000000       0x8c ./main.o
 .debug_frame   0x0000008c       0x30 c:/ti/ccsv6/tools/compiler/gcc_msp430_4.9.14r1_167/bin/../lib/gcc/msp430-elf/4.9.1/../../../../msp430-elf/lib/large\libc.a(lib_a-memset.o)
 .debug_frame   0x000000bc       0x44 c:/ti/ccsv6/tools/compiler/gcc_msp430_4.9.14r1_167/bin/../lib/gcc/msp430-elf/4.9.1/../../../../msp430-elf/lib/large\libc.a(lib_a-sprintf.o)
 .debug_frame   0x00000100       0x44 c:/ti/ccsv6/tools/compiler/gcc_msp430_4.9.14r1_167/bin/../lib/gcc/msp430-elf/4.9.1/../../../../msp430-elf/lib/large\libc.a(lib_a-svfprintf.o)
 .debug_frame   0x00000144       0x70 c:/ti/ccsv6/tools/compiler/gcc_msp430_4.9.14r1_167/bin/../lib/gcc/msp430-elf/4.9.1/../../../../msp430-elf/lib/large\libc.a(lib_a-dtoa.o)
 .debug_frame   0x000001b4       0xa8 c:/ti/ccsv6/tools/compiler/gcc_msp430_4.9.14r1_167/bin/../lib/gcc/msp430-elf/4.9.1/../../../../msp430-elf/lib/large\libc.a(lib_a-locale.o)
 .debug_frame   0x0000025c       0x34 c:/ti/ccsv6/tools/compiler/gcc_msp430_4.9.14r1_167/bin/../lib/gcc/msp430-elf/4.9.1/../../../../msp430-elf/lib/large\libc.a(lib_a-malloc.o)
 .debug_frame   0x00000290       0x24 c:/ti/ccsv6/tools/compiler/gcc_msp430_4.9.14r1_167/bin/../lib/gcc/msp430-elf/4.9.1/../../../../msp430-elf/lib/large\libc.a(lib_a-memchr.o)
 .debug_frame   0x000002b4       0x40 c:/ti/ccsv6/tools/compiler/gcc_msp430_4.9.14r1_167/bin/../lib/gcc/msp430-elf/4.9.1/../../../../msp430-elf/lib/large\libc.a(lib_a-memcpy.o)
 .debug_frame   0x000002f4      0x2ec c:/ti/ccsv6/tools/compiler/gcc_msp430_4.9.14r1_167/bin/../lib/gcc/msp430-elf/4.9.1/../../../../msp430-elf/lib/large\libc.a(lib_a-mprec.o)
 .debug_frame   0x000005e0       0x38 c:/ti/ccsv6/tools/compiler/gcc_msp430_4.9.14r1_167/bin/../lib/gcc/msp430-elf/4.9.1/../../../../msp430-elf/lib/large\libc.a(lib_a-nano-callocr.o)
 .debug_frame   0x00000618       0x40 c:/ti/ccsv6/tools/compiler/gcc_msp430_4.9.14r1_167/bin/../lib/gcc/msp430-elf/4.9.1/../../../../msp430-elf/lib/large\libc.a(lib_a-nano-freer.o)
 .debug_frame   0x00000658       0x44 c:/ti/ccsv6/tools/compiler/gcc_msp430_4.9.14r1_167/bin/../lib/gcc/msp430-elf/4.9.1/../../../../msp430-elf/lib/large\libc.a(lib_a-nano-mallocr.o)
 .debug_frame   0x0000069c       0x34 c:/ti/ccsv6/tools/compiler/gcc_msp430_4.9.14r1_167/bin/../lib/gcc/msp430-elf/4.9.1/../../../../msp430-elf/lib/large\libc.a(lib_a-s_fpclassify.o)
 .debug_frame   0x000006d0       0x30 c:/ti/ccsv6/tools/compiler/gcc_msp430_4.9.14r1_167/bin/../lib/gcc/msp430-elf/4.9.1/../../../../msp430-elf/lib/large\libc.a(lib_a-sbrkr.o)
 .debug_frame   0x00000700       0x24 c:/ti/ccsv6/tools/compiler/gcc_msp430_4.9.14r1_167/bin/../lib/gcc/msp430-elf/4.9.1/../../../../msp430-elf/lib/large\libc.a(lib_a-strcmp.o)
 .debug_frame   0x00000724       0x24 c:/ti/ccsv6/tools/compiler/gcc_msp430_4.9.14r1_167/bin/../lib/gcc/msp430-elf/4.9.1/../../../../msp430-elf/lib/large\libc.a(lib_a-strlen.o)
 .debug_frame   0x00000748       0x70 c:/ti/ccsv6/tools/compiler/gcc_msp430_4.9.14r1_167/bin/../lib/gcc/msp430-elf/4.9.1/../../../../msp430-elf/lib/large\libc.a(lib_a-svfiprintf.o)
 .debug_frame   0x000007b8       0x48 c:/ti/ccsv6/tools/compiler/gcc_msp430_4.9.14r1_167/bin/../lib/gcc/msp430-elf/4.9.1/../../../../msp430-elf/lib/large\libc.a(lib_a-memmove.o)
 .debug_frame   0x00000800       0x48 c:/ti/ccsv6/tools/compiler/gcc_msp430_4.9.14r1_167/bin/../lib/gcc/msp430-elf/4.9.1/../../../../msp430-elf/lib/large\libc.a(lib_a-nano-reallocr.o)
 .debug_frame   0x00000848       0x6c c:/ti/ccsv6/tools/compiler/gcc_msp430_4.9.14r1_167/bin/../lib/gcc/msp430-elf/4.9.1/../../../../msp430-elf/lib/large\libc.a(lib_a-reent.o)
 .debug_frame   0x000008b4       0x24 c:/ti/ccsv6/tools/compiler/gcc_msp430_4.9.14r1_167/bin/../lib/gcc/msp430-elf/4.9.1/../../../../msp430-elf/lib/large\libc.a(lib_a-nano-msizer.o)
 .debug_frame   0x000008d8       0x88 c:/ti/ccsv6/tools/compiler/gcc_msp430_4.9.14r1_167/bin/../lib/gcc/msp430-elf/4.9.1/large\libgcc.a(_addsub_df.o)
 .debug_frame   0x00000960       0x40 c:/ti/ccsv6/tools/compiler/gcc_msp430_4.9.14r1_167/bin/../lib/gcc/msp430-elf/4.9.1/large\libgcc.a(_mul_df.o)
 .debug_frame   0x000009a0       0x40 c:/ti/ccsv6/tools/compiler/gcc_msp430_4.9.14r1_167/bin/../lib/gcc/msp430-elf/4.9.1/large\libgcc.a(_div_df.o)
 .debug_frame   0x000009e0       0x34 c:/ti/ccsv6/tools/compiler/gcc_msp430_4.9.14r1_167/bin/../lib/gcc/msp430-elf/4.9.1/large\libgcc.a(_eq_df.o)
 .debug_frame   0x00000a14       0x34 c:/ti/ccsv6/tools/compiler/gcc_msp430_4.9.14r1_167/bin/../lib/gcc/msp430-elf/4.9.1/large\libgcc.a(_ne_df.o)
 .debug_frame   0x00000a48       0x34 c:/ti/ccsv6/tools/compiler/gcc_msp430_4.9.14r1_167/bin/../lib/gcc/msp430-elf/4.9.1/large\libgcc.a(_gt_df.o)
 .debug_frame   0x00000a7c       0x34 c:/ti/ccsv6/tools/compiler/gcc_msp430_4.9.14r1_167/bin/../lib/gcc/msp430-elf/4.9.1/large\libgcc.a(_ge_df.o)
 .debug_frame   0x00000ab0       0x34 c:/ti/ccsv6/tools/compiler/gcc_msp430_4.9.14r1_167/bin/../lib/gcc/msp430-elf/4.9.1/large\libgcc.a(_lt_df.o)
 .debug_frame   0x00000ae4       0x3c c:/ti/ccsv6/tools/compiler/gcc_msp430_4.9.14r1_167/bin/../lib/gcc/msp430-elf/4.9.1/large\libgcc.a(_si_to_df.o)
 .debug_frame   0x00000b20       0x34 c:/ti/ccsv6/tools/compiler/gcc_msp430_4.9.14r1_167/bin/../lib/gcc/msp430-elf/4.9.1/large\libgcc.a(_df_to_si.o)
 .debug_frame   0x00000b54       0x38 c:/ti/ccsv6/tools/compiler/gcc_msp430_4.9.14r1_167/bin/../lib/gcc/msp430-elf/4.9.1/large\libgcc.a(_usi_to_df.o)
 .debug_frame   0x00000b8c       0x7c c:/ti/ccsv6/tools/compiler/gcc_msp430_4.9.14r1_167/bin/../lib/gcc/msp430-elf/4.9.1/large\libgcc.a(lib2divHI.o)
 .debug_frame   0x00000c08       0xbc c:/ti/ccsv6/tools/compiler/gcc_msp430_4.9.14r1_167/bin/../lib/gcc/msp430-elf/4.9.1/large\libgcc.a(lib2divSI.o)
 .debug_frame   0x00000cc4       0x40 c:/ti/ccsv6/tools/compiler/gcc_msp430_4.9.14r1_167/bin/../lib/gcc/msp430-elf/4.9.1/large\libgcc.a(_muldi3.o)
 .debug_frame   0x00000d04       0x40 c:/ti/ccsv6/tools/compiler/gcc_msp430_4.9.14r1_167/bin/../lib/gcc/msp430-elf/4.9.1/large\libgcc.a(_lshrdi3.o)
 .debug_frame   0x00000d44       0x40 c:/ti/ccsv6/tools/compiler/gcc_msp430_4.9.14r1_167/bin/../lib/gcc/msp430-elf/4.9.1/large\libgcc.a(_ashldi3.o)
 .debug_frame   0x00000d84       0x30 c:/ti/ccsv6/tools/compiler/gcc_msp430_4.9.14r1_167/bin/../lib/gcc/msp430-elf/4.9.1/large\libgcc.a(_clzsi2.o)
 .debug_frame   0x00000db4       0x40 c:/ti/ccsv6/tools/compiler/gcc_msp430_4.9.14r1_167/bin/../lib/gcc/msp430-elf/4.9.1/large\libgcc.a(_pack_df.o)
 .debug_frame   0x00000df4       0x40 c:/ti/ccsv6/tools/compiler/gcc_msp430_4.9.14r1_167/bin/../lib/gcc/msp430-elf/4.9.1/large\libgcc.a(_unpack_df.o)
 .debug_frame   0x00000e34       0x34 c:/ti/ccsv6/tools/compiler/gcc_msp430_4.9.14r1_167/bin/../lib/gcc/msp430-elf/4.9.1/large\libgcc.a(_fpcmp_parts_df.o)
 .debug_frame   0x00000e68       0x58 c:/ti/ccsv6/tools/compiler/gcc_msp430_4.9.14r1_167/bin/../lib/gcc/msp430-elf/4.9.1/large\libgcc.a(lib2mul.o)
 .debug_frame   0x00000ec0       0x34 c:/ti/ccsv6/tools/compiler/gcc_msp430_4.9.14r1_167/bin/../lib/gcc/msp430-elf/4.9.1/../../../../msp430-elf/lib/large\libnosys.a(sbrk.o)
 .debug_frame   0x00000ef4       0x40 c:/ti/ccsv6/tools/compiler/gcc_msp430_4.9.14r1_167/bin/../lib/gcc/msp430-elf/4.9.1/../../../../msp430-elf/lib/large\libnosys.a(write.o)
 .debug_frame   0x00000f34       0x24 c:/ti/ccsv6/tools/compiler/gcc_msp430_4.9.14r1_167/bin/../lib/gcc/msp430-elf/4.9.1/../../../../msp430-elf/lib/large\libc.a(lib_a-abort.o)
 .debug_frame   0x00000f58       0xd8 c:/ti/ccsv6/tools/compiler/gcc_msp430_4.9.14r1_167/bin/../lib/gcc/msp430-elf/4.9.1/../../../../msp430-elf/lib/large\libc.a(lib_a-signal.o)
 .debug_frame   0x00001030       0x40 c:/ti/ccsv6/tools/compiler/gcc_msp430_4.9.14r1_167/bin/../lib/gcc/msp430-elf/4.9.1/../../../../msp430-elf/lib/large\libc.a(lib_a-signalr.o)
 .debug_frame   0x00001070       0x24 c:/ti/ccsv6/tools/compiler/gcc_msp430_4.9.14r1_167/bin/../lib/gcc/msp430-elf/4.9.1/../../../../msp430-elf/lib/large\libc.a(lib_a-errno.o)

.debug_str      0x00000000     0x1d9e
 *(.debug_str)
 .debug_str     0x00000000      0x2b6 ./main.o
                                0x2f5 (size before relaxing)
 .debug_str     0x000002b6      0x115 c:/ti/ccsv6/tools/compiler/gcc_msp430_4.9.14r1_167/bin/../lib/gcc/msp430-elf/4.9.1/../../../../msp430-elf/lib/large\libc.a(lib_a-memset.o)
                                0x1c7 (size before relaxing)
 .debug_str     0x000003cb      0x3e4 c:/ti/ccsv6/tools/compiler/gcc_msp430_4.9.14r1_167/bin/../lib/gcc/msp430-elf/4.9.1/../../../../msp430-elf/lib/large\libc.a(lib_a-sprintf.o)
                                0x5c1 (size before relaxing)
 .debug_str     0x000007af      0x3b4 c:/ti/ccsv6/tools/compiler/gcc_msp430_4.9.14r1_167/bin/../lib/gcc/msp430-elf/4.9.1/../../../../msp430-elf/lib/large\libc.a(lib_a-svfprintf.o)
                                0x910 (size before relaxing)
 .debug_str     0x00000b63      0x170 c:/ti/ccsv6/tools/compiler/gcc_msp430_4.9.14r1_167/bin/../lib/gcc/msp430-elf/4.9.1/../../../../msp430-elf/lib/large\libc.a(lib_a-dtoa.o)
                                0x6e9 (size before relaxing)
 .debug_str     0x00000cd3       0xa3 c:/ti/ccsv6/tools/compiler/gcc_msp430_4.9.14r1_167/bin/../lib/gcc/msp430-elf/4.9.1/../../../../msp430-elf/lib/large\libc.a(lib_a-impure.o)
                                0x5d0 (size before relaxing)
 .debug_str     0x00000d76      0x126 c:/ti/ccsv6/tools/compiler/gcc_msp430_4.9.14r1_167/bin/../lib/gcc/msp430-elf/4.9.1/../../../../msp430-elf/lib/large\libc.a(lib_a-locale.o)
                                0x7e6 (size before relaxing)
 .debug_str     0x00000e9c       0x5a c:/ti/ccsv6/tools/compiler/gcc_msp430_4.9.14r1_167/bin/../lib/gcc/msp430-elf/4.9.1/../../../../msp430-elf/lib/large\libc.a(lib_a-malloc.o)
                                0x5a4 (size before relaxing)
 .debug_str     0x00000ef6       0x4f c:/ti/ccsv6/tools/compiler/gcc_msp430_4.9.14r1_167/bin/../lib/gcc/msp430-elf/4.9.1/../../../../msp430-elf/lib/large\libc.a(lib_a-memchr.o)
                                0x1d7 (size before relaxing)
 .debug_str     0x00000f45       0x5a c:/ti/ccsv6/tools/compiler/gcc_msp430_4.9.14r1_167/bin/../lib/gcc/msp430-elf/4.9.1/../../../../msp430-elf/lib/large\libc.a(lib_a-memcpy.o)
                                0x1db (size before relaxing)
 .debug_str     0x00000f9f       0xb0 c:/ti/ccsv6/tools/compiler/gcc_msp430_4.9.14r1_167/bin/../lib/gcc/msp430-elf/4.9.1/../../../../msp430-elf/lib/large\libc.a(lib_a-mprec.o)
                                0x6a3 (size before relaxing)
 .debug_str     0x0000104f       0x69 c:/ti/ccsv6/tools/compiler/gcc_msp430_4.9.14r1_167/bin/../lib/gcc/msp430-elf/4.9.1/../../../../msp430-elf/lib/large\libc.a(lib_a-nano-callocr.o)
                                0x5ac (size before relaxing)
 .debug_str     0x000010b8       0x44 c:/ti/ccsv6/tools/compiler/gcc_msp430_4.9.14r1_167/bin/../lib/gcc/msp430-elf/4.9.1/../../../../msp430-elf/lib/large\libc.a(lib_a-nano-freer.o)
                                0x5e8 (size before relaxing)
 .debug_str     0x000010fc       0x50 c:/ti/ccsv6/tools/compiler/gcc_msp430_4.9.14r1_167/bin/../lib/gcc/msp430-elf/4.9.1/../../../../msp430-elf/lib/large\libc.a(lib_a-nano-mallocr.o)
                                0x61d (size before relaxing)
 .debug_str     0x0000114c       0x76 c:/ti/ccsv6/tools/compiler/gcc_msp430_4.9.14r1_167/bin/../lib/gcc/msp430-elf/4.9.1/../../../../msp430-elf/lib/large\libc.a(lib_a-s_fpclassify.o)
                                0x219 (size before relaxing)
 .debug_str     0x000011c2       0x49 c:/ti/ccsv6/tools/compiler/gcc_msp430_4.9.14r1_167/bin/../lib/gcc/msp430-elf/4.9.1/../../../../msp430-elf/lib/large\libc.a(lib_a-sbrkr.o)
                                0x587 (size before relaxing)
 .debug_str     0x0000120b       0x4d c:/ti/ccsv6/tools/compiler/gcc_msp430_4.9.14r1_167/bin/../lib/gcc/msp430-elf/4.9.1/../../../../msp430-elf/lib/large\libc.a(lib_a-strcmp.o)
                                0x1c0 (size before relaxing)
 .debug_str     0x00001258       0x46 c:/ti/ccsv6/tools/compiler/gcc_msp430_4.9.14r1_167/bin/../lib/gcc/msp430-elf/4.9.1/../../../../msp430-elf/lib/large\libc.a(lib_a-strlen.o)
                                0x1cd (size before relaxing)
 .debug_str     0x0000129e       0x30 c:/ti/ccsv6/tools/compiler/gcc_msp430_4.9.14r1_167/bin/../lib/gcc/msp430-elf/4.9.1/../../../../msp430-elf/lib/large\libc.a(lib_a-svfiprintf.o)
                                0x721 (size before relaxing)
 .debug_str     0x000012ce       0x50 c:/ti/ccsv6/tools/compiler/gcc_msp430_4.9.14r1_167/bin/../lib/gcc/msp430-elf/4.9.1/../../../../msp430-elf/lib/large\libc.a(lib_a-memmove.o)
                                0x1e2 (size before relaxing)
 .debug_str     0x0000131e       0x23 c:/ti/ccsv6/tools/compiler/gcc_msp430_4.9.14r1_167/bin/../lib/gcc/msp430-elf/4.9.1/../../../../msp430-elf/lib/large\libc.a(lib_a-nano-reallocr.o)
                                0x5f0 (size before relaxing)
 .debug_str     0x00001341       0x70 c:/ti/ccsv6/tools/compiler/gcc_msp430_4.9.14r1_167/bin/../lib/gcc/msp430-elf/4.9.1/../../../../msp430-elf/lib/large\libc.a(lib_a-reent.o)
                                0x5b0 (size before relaxing)
 .debug_str     0x000013b1        0xf c:/ti/ccsv6/tools/compiler/gcc_msp430_4.9.14r1_167/bin/../lib/gcc/msp430-elf/4.9.1/../../../../msp430-elf/lib/large\libc.a(lib_a-nano-msizer.o)
                                0x5ce (size before relaxing)
 .debug_str     0x000013c0      0x2ef c:/ti/ccsv6/tools/compiler/gcc_msp430_4.9.14r1_167/bin/../lib/gcc/msp430-elf/4.9.1/large\libgcc.a(_addsub_df.o)
                                0x3ad (size before relaxing)
 .debug_str     0x000016af       0x45 c:/ti/ccsv6/tools/compiler/gcc_msp430_4.9.14r1_167/bin/../lib/gcc/msp430-elf/4.9.1/large\libgcc.a(_mul_df.o)
                                0x370 (size before relaxing)
 .debug_str     0x000016f4       0x35 c:/ti/ccsv6/tools/compiler/gcc_msp430_4.9.14r1_167/bin/../lib/gcc/msp430-elf/4.9.1/large\libgcc.a(_div_df.o)
                                0x360 (size before relaxing)
 .debug_str     0x00001729       0x20 c:/ti/ccsv6/tools/compiler/gcc_msp430_4.9.14r1_167/bin/../lib/gcc/msp430-elf/4.9.1/large\libgcc.a(_eq_df.o)
                                0x32d (size before relaxing)
 .debug_str     0x00001749        0x8 c:/ti/ccsv6/tools/compiler/gcc_msp430_4.9.14r1_167/bin/../lib/gcc/msp430-elf/4.9.1/large\libgcc.a(_ne_df.o)
                                0x32d (size before relaxing)
 .debug_str     0x00001751        0x8 c:/ti/ccsv6/tools/compiler/gcc_msp430_4.9.14r1_167/bin/../lib/gcc/msp430-elf/4.9.1/large\libgcc.a(_gt_df.o)
                                0x32d (size before relaxing)
 .debug_str     0x00001759        0x8 c:/ti/ccsv6/tools/compiler/gcc_msp430_4.9.14r1_167/bin/../lib/gcc/msp430-elf/4.9.1/large\libgcc.a(_ge_df.o)
                                0x32d (size before relaxing)
 .debug_str     0x00001761        0x8 c:/ti/ccsv6/tools/compiler/gcc_msp430_4.9.14r1_167/bin/../lib/gcc/msp430-elf/4.9.1/large\libgcc.a(_lt_df.o)
                                0x32d (size before relaxing)
 .debug_str     0x00001769       0x21 c:/ti/ccsv6/tools/compiler/gcc_msp430_4.9.14r1_167/bin/../lib/gcc/msp430-elf/4.9.1/large\libgcc.a(_si_to_df.o)
                                0x30e (size before relaxing)
 .debug_str     0x0000178a       0x15 c:/ti/ccsv6/tools/compiler/gcc_msp430_4.9.14r1_167/bin/../lib/gcc/msp430-elf/4.9.1/large\libgcc.a(_df_to_si.o)
                                0x330 (size before relaxing)
 .debug_str     0x00000000      0x2c1 c:/ti/ccsv6/tools/compiler/gcc_msp430_4.9.14r1_167/bin/../lib/gcc/msp430-elf/4.9.1/large\libgcc.a(_thenan_df.o)
 .debug_str     0x0000179f        0xe c:/ti/ccsv6/tools/compiler/gcc_msp430_4.9.14r1_167/bin/../lib/gcc/msp430-elf/4.9.1/large\libgcc.a(_usi_to_df.o)
                                0x304 (size before relaxing)
 .debug_str     0x000017ad       0xa8 c:/ti/ccsv6/tools/compiler/gcc_msp430_4.9.14r1_167/bin/../lib/gcc/msp430-elf/4.9.1/large\libgcc.a(lib2divHI.o)
                                0x1ed (size before relaxing)
 .debug_str     0x00001855       0x94 c:/ti/ccsv6/tools/compiler/gcc_msp430_4.9.14r1_167/bin/../lib/gcc/msp430-elf/4.9.1/large\libgcc.a(lib2divSI.o)
                                0x1ed (size before relaxing)
 .debug_str     0x000018e9       0x9a c:/ti/ccsv6/tools/compiler/gcc_msp430_4.9.14r1_167/bin/../lib/gcc/msp430-elf/4.9.1/large\libgcc.a(_muldi3.o)
                                0x2b6 (size before relaxing)
 .debug_str     0x00001983       0x23 c:/ti/ccsv6/tools/compiler/gcc_msp430_4.9.14r1_167/bin/../lib/gcc/msp430-elf/4.9.1/large\libgcc.a(_lshrdi3.o)
                                0x2a8 (size before relaxing)
 .debug_str     0x000019a6        0xa c:/ti/ccsv6/tools/compiler/gcc_msp430_4.9.14r1_167/bin/../lib/gcc/msp430-elf/4.9.1/large\libgcc.a(_ashldi3.o)
                                0x2a8 (size before relaxing)
 .debug_str     0x000019b0       0x17 c:/ti/ccsv6/tools/compiler/gcc_msp430_4.9.14r1_167/bin/../lib/gcc/msp430-elf/4.9.1/large\libgcc.a(_clzsi2.o)
                                0x288 (size before relaxing)
 .debug_str     0x000019c7        0x7 c:/ti/ccsv6/tools/compiler/gcc_msp430_4.9.14r1_167/bin/../lib/gcc/msp430-elf/4.9.1/large\libgcc.a(_pack_df.o)
                                0x324 (size before relaxing)
 .debug_str     0x00000000      0x306 c:/ti/ccsv6/tools/compiler/gcc_msp430_4.9.14r1_167/bin/../lib/gcc/msp430-elf/4.9.1/large\libgcc.a(_unpack_df.o)
 .debug_str     0x00000000      0x2e4 c:/ti/ccsv6/tools/compiler/gcc_msp430_4.9.14r1_167/bin/../lib/gcc/msp430-elf/4.9.1/large\libgcc.a(_fpcmp_parts_df.o)
 .debug_str     0x000019ce       0x70 c:/ti/ccsv6/tools/compiler/gcc_msp430_4.9.14r1_167/bin/../lib/gcc/msp430-elf/4.9.1/large\libgcc.a(lib2mul.o)
                                0x1bd (size before relaxing)
 .debug_str     0x00000000      0x26b c:/ti/ccsv6/tools/compiler/gcc_msp430_4.9.14r1_167/bin/../lib/gcc/msp430-elf/4.9.1/large\libgcc.a(_clz.o)
 .debug_str     0x00001a3e      0x14f c:/ti/ccsv6/tools/compiler/gcc_msp430_4.9.14r1_167/bin/../lib/gcc/msp430-elf/4.9.1/../../../../msp430-elf/lib/large\libnosys.a(sbrk.o)
                                0x15a (size before relaxing)
 .debug_str     0x00001b8d       0x70 c:/ti/ccsv6/tools/compiler/gcc_msp430_4.9.14r1_167/bin/../lib/gcc/msp430-elf/4.9.1/../../../../msp430-elf/lib/large\libnosys.a(write.o)
                                0x1b9 (size before relaxing)
 .debug_str     0x00001bfd       0x51 c:/ti/ccsv6/tools/compiler/gcc_msp430_4.9.14r1_167/bin/../lib/gcc/msp430-elf/4.9.1/../../../../msp430-elf/lib/large\libc.a(lib_a-abort.o)
                                0x1ca (size before relaxing)
 .debug_str     0x00001c4e       0xac c:/ti/ccsv6/tools/compiler/gcc_msp430_4.9.14r1_167/bin/../lib/gcc/msp430-elf/4.9.1/../../../../msp430-elf/lib/large\libc.a(lib_a-signal.o)
                                0x606 (size before relaxing)
 .debug_str     0x00001cfa       0x58 c:/ti/ccsv6/tools/compiler/gcc_msp430_4.9.14r1_167/bin/../lib/gcc/msp430-elf/4.9.1/../../../../msp430-elf/lib/large\libc.a(lib_a-signalr.o)
                                0x591 (size before relaxing)
 .debug_str     0x00001d52       0x4c c:/ti/ccsv6/tools/compiler/gcc_msp430_4.9.14r1_167/bin/../lib/gcc/msp430-elf/4.9.1/../../../../msp430-elf/lib/large\libc.a(lib_a-errno.o)
                                0x579 (size before relaxing)

.debug_loc      0x00000000     0x855d
 *(.debug_loc)
 .debug_loc     0x00000000       0x44 ./main.o
 .debug_loc     0x00000044       0x8a c:/ti/ccsv6/tools/compiler/gcc_msp430_4.9.14r1_167/bin/../lib/gcc/msp430-elf/4.9.1/../../../../msp430-elf/lib/large\libc.a(lib_a-memset.o)
 .debug_loc     0x000000ce       0x7e c:/ti/ccsv6/tools/compiler/gcc_msp430_4.9.14r1_167/bin/../lib/gcc/msp430-elf/4.9.1/../../../../msp430-elf/lib/large\libc.a(lib_a-sprintf.o)
 .debug_loc     0x0000014c     0x159d c:/ti/ccsv6/tools/compiler/gcc_msp430_4.9.14r1_167/bin/../lib/gcc/msp430-elf/4.9.1/../../../../msp430-elf/lib/large\libc.a(lib_a-svfprintf.o)
 .debug_loc     0x000016e9     0x1b27 c:/ti/ccsv6/tools/compiler/gcc_msp430_4.9.14r1_167/bin/../lib/gcc/msp430-elf/4.9.1/../../../../msp430-elf/lib/large\libc.a(lib_a-dtoa.o)
 .debug_loc     0x00003210      0x16d c:/ti/ccsv6/tools/compiler/gcc_msp430_4.9.14r1_167/bin/../lib/gcc/msp430-elf/4.9.1/../../../../msp430-elf/lib/large\libc.a(lib_a-locale.o)
 .debug_loc     0x0000337d       0x5a c:/ti/ccsv6/tools/compiler/gcc_msp430_4.9.14r1_167/bin/../lib/gcc/msp430-elf/4.9.1/../../../../msp430-elf/lib/large\libc.a(lib_a-malloc.o)
 .debug_loc     0x000033d7       0xab c:/ti/ccsv6/tools/compiler/gcc_msp430_4.9.14r1_167/bin/../lib/gcc/msp430-elf/4.9.1/../../../../msp430-elf/lib/large\libc.a(lib_a-memchr.o)
 .debug_loc     0x00003482       0xcf c:/ti/ccsv6/tools/compiler/gcc_msp430_4.9.14r1_167/bin/../lib/gcc/msp430-elf/4.9.1/../../../../msp430-elf/lib/large\libc.a(lib_a-memcpy.o)
 .debug_loc     0x00003551     0x19c8 c:/ti/ccsv6/tools/compiler/gcc_msp430_4.9.14r1_167/bin/../lib/gcc/msp430-elf/4.9.1/../../../../msp430-elf/lib/large\libc.a(lib_a-mprec.o)
 .debug_loc     0x00004f19       0x81 c:/ti/ccsv6/tools/compiler/gcc_msp430_4.9.14r1_167/bin/../lib/gcc/msp430-elf/4.9.1/../../../../msp430-elf/lib/large\libc.a(lib_a-nano-callocr.o)
 .debug_loc     0x00004f9a      0x115 c:/ti/ccsv6/tools/compiler/gcc_msp430_4.9.14r1_167/bin/../lib/gcc/msp430-elf/4.9.1/../../../../msp430-elf/lib/large\libc.a(lib_a-nano-freer.o)
 .debug_loc     0x000050af      0x25e c:/ti/ccsv6/tools/compiler/gcc_msp430_4.9.14r1_167/bin/../lib/gcc/msp430-elf/4.9.1/../../../../msp430-elf/lib/large\libc.a(lib_a-nano-mallocr.o)
 .debug_loc     0x0000530d       0x66 c:/ti/ccsv6/tools/compiler/gcc_msp430_4.9.14r1_167/bin/../lib/gcc/msp430-elf/4.9.1/../../../../msp430-elf/lib/large\libc.a(lib_a-s_fpclassify.o)
 .debug_loc     0x00005373       0x40 c:/ti/ccsv6/tools/compiler/gcc_msp430_4.9.14r1_167/bin/../lib/gcc/msp430-elf/4.9.1/../../../../msp430-elf/lib/large\libc.a(lib_a-sbrkr.o)
 .debug_loc     0x000053b3       0x3c c:/ti/ccsv6/tools/compiler/gcc_msp430_4.9.14r1_167/bin/../lib/gcc/msp430-elf/4.9.1/../../../../msp430-elf/lib/large\libc.a(lib_a-strcmp.o)
 .debug_loc     0x000053ef       0x40 c:/ti/ccsv6/tools/compiler/gcc_msp430_4.9.14r1_167/bin/../lib/gcc/msp430-elf/4.9.1/../../../../msp430-elf/lib/large\libc.a(lib_a-strlen.o)
 .debug_loc     0x0000542f      0xdf2 c:/ti/ccsv6/tools/compiler/gcc_msp430_4.9.14r1_167/bin/../lib/gcc/msp430-elf/4.9.1/../../../../msp430-elf/lib/large\libc.a(lib_a-svfiprintf.o)
 .debug_loc     0x00006221      0x172 c:/ti/ccsv6/tools/compiler/gcc_msp430_4.9.14r1_167/bin/../lib/gcc/msp430-elf/4.9.1/../../../../msp430-elf/lib/large\libc.a(lib_a-memmove.o)
 .debug_loc     0x00006393       0x6d c:/ti/ccsv6/tools/compiler/gcc_msp430_4.9.14r1_167/bin/../lib/gcc/msp430-elf/4.9.1/../../../../msp430-elf/lib/large\libc.a(lib_a-nano-reallocr.o)
 .debug_loc     0x00006400       0xa5 c:/ti/ccsv6/tools/compiler/gcc_msp430_4.9.14r1_167/bin/../lib/gcc/msp430-elf/4.9.1/../../../../msp430-elf/lib/large\libc.a(lib_a-reent.o)
 .debug_loc     0x000064a5       0xf0 c:/ti/ccsv6/tools/compiler/gcc_msp430_4.9.14r1_167/bin/../lib/gcc/msp430-elf/4.9.1/../../../../msp430-elf/lib/large\libc.a(lib_a-nano-msizer.o)
 .debug_loc     0x00006595      0x423 c:/ti/ccsv6/tools/compiler/gcc_msp430_4.9.14r1_167/bin/../lib/gcc/msp430-elf/4.9.1/large\libgcc.a(_addsub_df.o)
 .debug_loc     0x000069b8      0x3ba c:/ti/ccsv6/tools/compiler/gcc_msp430_4.9.14r1_167/bin/../lib/gcc/msp430-elf/4.9.1/large\libgcc.a(_mul_df.o)
 .debug_loc     0x00006d72      0x27c c:/ti/ccsv6/tools/compiler/gcc_msp430_4.9.14r1_167/bin/../lib/gcc/msp430-elf/4.9.1/large\libgcc.a(_div_df.o)
 .debug_loc     0x00006fee       0x2e c:/ti/ccsv6/tools/compiler/gcc_msp430_4.9.14r1_167/bin/../lib/gcc/msp430-elf/4.9.1/large\libgcc.a(_eq_df.o)
 .debug_loc     0x0000701c       0x2e c:/ti/ccsv6/tools/compiler/gcc_msp430_4.9.14r1_167/bin/../lib/gcc/msp430-elf/4.9.1/large\libgcc.a(_ne_df.o)
 .debug_loc     0x0000704a       0x2e c:/ti/ccsv6/tools/compiler/gcc_msp430_4.9.14r1_167/bin/../lib/gcc/msp430-elf/4.9.1/large\libgcc.a(_gt_df.o)
 .debug_loc     0x00007078       0x2e c:/ti/ccsv6/tools/compiler/gcc_msp430_4.9.14r1_167/bin/../lib/gcc/msp430-elf/4.9.1/large\libgcc.a(_ge_df.o)
 .debug_loc     0x000070a6       0x2e c:/ti/ccsv6/tools/compiler/gcc_msp430_4.9.14r1_167/bin/../lib/gcc/msp430-elf/4.9.1/large\libgcc.a(_lt_df.o)
 .debug_loc     0x000070d4       0x79 c:/ti/ccsv6/tools/compiler/gcc_msp430_4.9.14r1_167/bin/../lib/gcc/msp430-elf/4.9.1/large\libgcc.a(_si_to_df.o)
 .debug_loc     0x0000714d       0x46 c:/ti/ccsv6/tools/compiler/gcc_msp430_4.9.14r1_167/bin/../lib/gcc/msp430-elf/4.9.1/large\libgcc.a(_df_to_si.o)
 .debug_loc     0x00007193       0x51 c:/ti/ccsv6/tools/compiler/gcc_msp430_4.9.14r1_167/bin/../lib/gcc/msp430-elf/4.9.1/large\libgcc.a(_usi_to_df.o)
 .debug_loc     0x000071e4      0x2af c:/ti/ccsv6/tools/compiler/gcc_msp430_4.9.14r1_167/bin/../lib/gcc/msp430-elf/4.9.1/large\libgcc.a(lib2divHI.o)
 .debug_loc     0x00007493      0x343 c:/ti/ccsv6/tools/compiler/gcc_msp430_4.9.14r1_167/bin/../lib/gcc/msp430-elf/4.9.1/large\libgcc.a(lib2divSI.o)
 .debug_loc     0x000077d6      0x130 c:/ti/ccsv6/tools/compiler/gcc_msp430_4.9.14r1_167/bin/../lib/gcc/msp430-elf/4.9.1/large\libgcc.a(_muldi3.o)
 .debug_loc     0x00007906       0xaf c:/ti/ccsv6/tools/compiler/gcc_msp430_4.9.14r1_167/bin/../lib/gcc/msp430-elf/4.9.1/large\libgcc.a(_lshrdi3.o)
 .debug_loc     0x000079b5       0x84 c:/ti/ccsv6/tools/compiler/gcc_msp430_4.9.14r1_167/bin/../lib/gcc/msp430-elf/4.9.1/large\libgcc.a(_ashldi3.o)
 .debug_loc     0x00007a39       0x56 c:/ti/ccsv6/tools/compiler/gcc_msp430_4.9.14r1_167/bin/../lib/gcc/msp430-elf/4.9.1/large\libgcc.a(_clzsi2.o)
 .debug_loc     0x00007a8f      0x2b5 c:/ti/ccsv6/tools/compiler/gcc_msp430_4.9.14r1_167/bin/../lib/gcc/msp430-elf/4.9.1/large\libgcc.a(_pack_df.o)
 .debug_loc     0x00007d44      0x131 c:/ti/ccsv6/tools/compiler/gcc_msp430_4.9.14r1_167/bin/../lib/gcc/msp430-elf/4.9.1/large\libgcc.a(_unpack_df.o)
 .debug_loc     0x00007e75       0x5a c:/ti/ccsv6/tools/compiler/gcc_msp430_4.9.14r1_167/bin/../lib/gcc/msp430-elf/4.9.1/large\libgcc.a(_fpcmp_parts_df.o)
 .debug_loc     0x00007ecf      0x1ca c:/ti/ccsv6/tools/compiler/gcc_msp430_4.9.14r1_167/bin/../lib/gcc/msp430-elf/4.9.1/large\libgcc.a(lib2mul.o)
 .debug_loc     0x00008099       0x4e c:/ti/ccsv6/tools/compiler/gcc_msp430_4.9.14r1_167/bin/../lib/gcc/msp430-elf/4.9.1/../../../../msp430-elf/lib/large\libnosys.a(sbrk.o)
 .debug_loc     0x000080e7       0xb9 c:/ti/ccsv6/tools/compiler/gcc_msp430_4.9.14r1_167/bin/../lib/gcc/msp430-elf/4.9.1/../../../../msp430-elf/lib/large\libnosys.a(write.o)
 .debug_loc     0x000081a0      0x330 c:/ti/ccsv6/tools/compiler/gcc_msp430_4.9.14r1_167/bin/../lib/gcc/msp430-elf/4.9.1/../../../../msp430-elf/lib/large\libc.a(lib_a-signal.o)
 .debug_loc     0x000084d0       0x8d c:/ti/ccsv6/tools/compiler/gcc_msp430_4.9.14r1_167/bin/../lib/gcc/msp430-elf/4.9.1/../../../../msp430-elf/lib/large\libc.a(lib_a-signalr.o)

.debug_macinfo
 *(.debug_macinfo)

.debug_weaknames
 *(.debug_weaknames)

.debug_funcnames
 *(.debug_funcnames)

.debug_typenames
 *(.debug_typenames)

.debug_varnames
 *(.debug_varnames)

.debug_pubtypes
 *(.debug_pubtypes)

.debug_ranges   0x00000000      0x5f0
 *(.debug_ranges)
 .debug_ranges  0x00000000       0x28 c:/ti/ccsv6/tools/compiler/gcc_msp430_4.9.14r1_167/bin/../lib/gcc/msp430-elf/4.9.1/../../../../msp430-elf/lib/large/crt0.o
 .debug_ranges  0x00000028       0x18 ./main.o
 .debug_ranges  0x00000040       0x10 c:/ti/ccsv6/tools/compiler/gcc_msp430_4.9.14r1_167/bin/../lib/gcc/msp430-elf/4.9.1/../../../../msp430-elf/lib/large\libc.a(lib_a-memset.o)
 .debug_ranges  0x00000050       0x18 c:/ti/ccsv6/tools/compiler/gcc_msp430_4.9.14r1_167/bin/../lib/gcc/msp430-elf/4.9.1/../../../../msp430-elf/lib/large\libc.a(lib_a-sprintf.o)
 .debug_ranges  0x00000068       0x70 c:/ti/ccsv6/tools/compiler/gcc_msp430_4.9.14r1_167/bin/../lib/gcc/msp430-elf/4.9.1/../../../../msp430-elf/lib/large\libc.a(lib_a-svfprintf.o)
 .debug_ranges  0x000000d8       0x18 c:/ti/ccsv6/tools/compiler/gcc_msp430_4.9.14r1_167/bin/../lib/gcc/msp430-elf/4.9.1/../../../../msp430-elf/lib/large\libc.a(lib_a-dtoa.o)
 .debug_ranges  0x000000f0       0x48 c:/ti/ccsv6/tools/compiler/gcc_msp430_4.9.14r1_167/bin/../lib/gcc/msp430-elf/4.9.1/../../../../msp430-elf/lib/large\libc.a(lib_a-locale.o)
 .debug_ranges  0x00000138       0x18 c:/ti/ccsv6/tools/compiler/gcc_msp430_4.9.14r1_167/bin/../lib/gcc/msp430-elf/4.9.1/../../../../msp430-elf/lib/large\libc.a(lib_a-malloc.o)
 .debug_ranges  0x00000150       0x10 c:/ti/ccsv6/tools/compiler/gcc_msp430_4.9.14r1_167/bin/../lib/gcc/msp430-elf/4.9.1/../../../../msp430-elf/lib/large\libc.a(lib_a-memchr.o)
 .debug_ranges  0x00000160       0x10 c:/ti/ccsv6/tools/compiler/gcc_msp430_4.9.14r1_167/bin/../lib/gcc/msp430-elf/4.9.1/../../../../msp430-elf/lib/large\libc.a(lib_a-memcpy.o)
 .debug_ranges  0x00000170       0xa0 c:/ti/ccsv6/tools/compiler/gcc_msp430_4.9.14r1_167/bin/../lib/gcc/msp430-elf/4.9.1/../../../../msp430-elf/lib/large\libc.a(lib_a-mprec.o)
 .debug_ranges  0x00000210       0x10 c:/ti/ccsv6/tools/compiler/gcc_msp430_4.9.14r1_167/bin/../lib/gcc/msp430-elf/4.9.1/../../../../msp430-elf/lib/large\libc.a(lib_a-nano-callocr.o)
 .debug_ranges  0x00000220       0x10 c:/ti/ccsv6/tools/compiler/gcc_msp430_4.9.14r1_167/bin/../lib/gcc/msp430-elf/4.9.1/../../../../msp430-elf/lib/large\libc.a(lib_a-nano-freer.o)
 .debug_ranges  0x00000230       0x40 c:/ti/ccsv6/tools/compiler/gcc_msp430_4.9.14r1_167/bin/../lib/gcc/msp430-elf/4.9.1/../../../../msp430-elf/lib/large\libc.a(lib_a-nano-mallocr.o)
 .debug_ranges  0x00000270       0x10 c:/ti/ccsv6/tools/compiler/gcc_msp430_4.9.14r1_167/bin/../lib/gcc/msp430-elf/4.9.1/../../../../msp430-elf/lib/large\libc.a(lib_a-s_fpclassify.o)
 .debug_ranges  0x00000280       0x10 c:/ti/ccsv6/tools/compiler/gcc_msp430_4.9.14r1_167/bin/../lib/gcc/msp430-elf/4.9.1/../../../../msp430-elf/lib/large\libc.a(lib_a-sbrkr.o)
 .debug_ranges  0x00000290       0x10 c:/ti/ccsv6/tools/compiler/gcc_msp430_4.9.14r1_167/bin/../lib/gcc/msp430-elf/4.9.1/../../../../msp430-elf/lib/large\libc.a(lib_a-strcmp.o)
 .debug_ranges  0x000002a0       0x10 c:/ti/ccsv6/tools/compiler/gcc_msp430_4.9.14r1_167/bin/../lib/gcc/msp430-elf/4.9.1/../../../../msp430-elf/lib/large\libc.a(lib_a-strlen.o)
 .debug_ranges  0x000002b0       0x48 c:/ti/ccsv6/tools/compiler/gcc_msp430_4.9.14r1_167/bin/../lib/gcc/msp430-elf/4.9.1/../../../../msp430-elf/lib/large\libc.a(lib_a-svfiprintf.o)
 .debug_ranges  0x000002f8       0x10 c:/ti/ccsv6/tools/compiler/gcc_msp430_4.9.14r1_167/bin/../lib/gcc/msp430-elf/4.9.1/../../../../msp430-elf/lib/large\libc.a(lib_a-memmove.o)
 .debug_ranges  0x00000308       0x10 c:/ti/ccsv6/tools/compiler/gcc_msp430_4.9.14r1_167/bin/../lib/gcc/msp430-elf/4.9.1/../../../../msp430-elf/lib/large\libc.a(lib_a-nano-reallocr.o)
 .debug_ranges  0x00000318       0x18 c:/ti/ccsv6/tools/compiler/gcc_msp430_4.9.14r1_167/bin/../lib/gcc/msp430-elf/4.9.1/../../../../msp430-elf/lib/large\libc.a(lib_a-reent.o)
 .debug_ranges  0x00000330       0x10 c:/ti/ccsv6/tools/compiler/gcc_msp430_4.9.14r1_167/bin/../lib/gcc/msp430-elf/4.9.1/../../../../msp430-elf/lib/large\libc.a(lib_a-nano-msizer.o)
 .debug_ranges  0x00000340       0x20 c:/ti/ccsv6/tools/compiler/gcc_msp430_4.9.14r1_167/bin/../lib/gcc/msp430-elf/4.9.1/large\libgcc.a(_addsub_df.o)
 .debug_ranges  0x00000360       0x10 c:/ti/ccsv6/tools/compiler/gcc_msp430_4.9.14r1_167/bin/../lib/gcc/msp430-elf/4.9.1/large\libgcc.a(_mul_df.o)
 .debug_ranges  0x00000370       0x28 c:/ti/ccsv6/tools/compiler/gcc_msp430_4.9.14r1_167/bin/../lib/gcc/msp430-elf/4.9.1/large\libgcc.a(_div_df.o)
 .debug_ranges  0x00000398       0x10 c:/ti/ccsv6/tools/compiler/gcc_msp430_4.9.14r1_167/bin/../lib/gcc/msp430-elf/4.9.1/large\libgcc.a(_eq_df.o)
 .debug_ranges  0x000003a8       0x10 c:/ti/ccsv6/tools/compiler/gcc_msp430_4.9.14r1_167/bin/../lib/gcc/msp430-elf/4.9.1/large\libgcc.a(_ne_df.o)
 .debug_ranges  0x000003b8       0x10 c:/ti/ccsv6/tools/compiler/gcc_msp430_4.9.14r1_167/bin/../lib/gcc/msp430-elf/4.9.1/large\libgcc.a(_gt_df.o)
 .debug_ranges  0x000003c8       0x10 c:/ti/ccsv6/tools/compiler/gcc_msp430_4.9.14r1_167/bin/../lib/gcc/msp430-elf/4.9.1/large\libgcc.a(_ge_df.o)
 .debug_ranges  0x000003d8       0x10 c:/ti/ccsv6/tools/compiler/gcc_msp430_4.9.14r1_167/bin/../lib/gcc/msp430-elf/4.9.1/large\libgcc.a(_lt_df.o)
 .debug_ranges  0x000003e8       0x28 c:/ti/ccsv6/tools/compiler/gcc_msp430_4.9.14r1_167/bin/../lib/gcc/msp430-elf/4.9.1/large\libgcc.a(_si_to_df.o)
 .debug_ranges  0x00000410       0x10 c:/ti/ccsv6/tools/compiler/gcc_msp430_4.9.14r1_167/bin/../lib/gcc/msp430-elf/4.9.1/large\libgcc.a(_df_to_si.o)
 .debug_ranges  0x00000420       0x10 c:/ti/ccsv6/tools/compiler/gcc_msp430_4.9.14r1_167/bin/../lib/gcc/msp430-elf/4.9.1/large\libgcc.a(_usi_to_df.o)
 .debug_ranges  0x00000430       0x30 c:/ti/ccsv6/tools/compiler/gcc_msp430_4.9.14r1_167/bin/../lib/gcc/msp430-elf/4.9.1/large\libgcc.a(lib2divHI.o)
 .debug_ranges  0x00000460       0x30 c:/ti/ccsv6/tools/compiler/gcc_msp430_4.9.14r1_167/bin/../lib/gcc/msp430-elf/4.9.1/large\libgcc.a(lib2divSI.o)
 .debug_ranges  0x00000490       0x10 c:/ti/ccsv6/tools/compiler/gcc_msp430_4.9.14r1_167/bin/../lib/gcc/msp430-elf/4.9.1/large\libgcc.a(_muldi3.o)
 .debug_ranges  0x000004a0       0x10 c:/ti/ccsv6/tools/compiler/gcc_msp430_4.9.14r1_167/bin/../lib/gcc/msp430-elf/4.9.1/large\libgcc.a(_lshrdi3.o)
 .debug_ranges  0x000004b0       0x10 c:/ti/ccsv6/tools/compiler/gcc_msp430_4.9.14r1_167/bin/../lib/gcc/msp430-elf/4.9.1/large\libgcc.a(_ashldi3.o)
 .debug_ranges  0x000004c0       0x10 c:/ti/ccsv6/tools/compiler/gcc_msp430_4.9.14r1_167/bin/../lib/gcc/msp430-elf/4.9.1/large\libgcc.a(_clzsi2.o)
 .debug_ranges  0x000004d0       0x10 c:/ti/ccsv6/tools/compiler/gcc_msp430_4.9.14r1_167/bin/../lib/gcc/msp430-elf/4.9.1/large\libgcc.a(_pack_df.o)
 .debug_ranges  0x000004e0       0x10 c:/ti/ccsv6/tools/compiler/gcc_msp430_4.9.14r1_167/bin/../lib/gcc/msp430-elf/4.9.1/large\libgcc.a(_unpack_df.o)
 .debug_ranges  0x000004f0       0x10 c:/ti/ccsv6/tools/compiler/gcc_msp430_4.9.14r1_167/bin/../lib/gcc/msp430-elf/4.9.1/large\libgcc.a(_fpcmp_parts_df.o)
 .debug_ranges  0x00000500       0x20 c:/ti/ccsv6/tools/compiler/gcc_msp430_4.9.14r1_167/bin/../lib/gcc/msp430-elf/4.9.1/large\libgcc.a(lib2mul.o)
 .debug_ranges  0x00000520       0x30 c:/ti/ccsv6/tools/compiler/gcc_msp430_4.9.14r1_167/bin/../lib/gcc/msp430-elf/4.9.1/../../../../msp430-elf/lib/large\libnosys.a(write.o)
 .debug_ranges  0x00000550       0x10 c:/ti/ccsv6/tools/compiler/gcc_msp430_4.9.14r1_167/bin/../lib/gcc/msp430-elf/4.9.1/../../../../msp430-elf/lib/large\libc.a(lib_a-abort.o)
 .debug_ranges  0x00000560       0x48 c:/ti/ccsv6/tools/compiler/gcc_msp430_4.9.14r1_167/bin/../lib/gcc/msp430-elf/4.9.1/../../../../msp430-elf/lib/large\libc.a(lib_a-signal.o)
 .debug_ranges  0x000005a8       0x18 c:/ti/ccsv6/tools/compiler/gcc_msp430_4.9.14r1_167/bin/../lib/gcc/msp430-elf/4.9.1/../../../../msp430-elf/lib/large\libc.a(lib_a-signalr.o)
 .debug_ranges  0x000005c0       0x10 c:/ti/ccsv6/tools/compiler/gcc_msp430_4.9.14r1_167/bin/../lib/gcc/msp430-elf/4.9.1/../../../../msp430-elf/lib/large\libc.a(lib_a-errno.o)
 .debug_ranges  0x000005d0       0x20 c:/ti/ccsv6/tools/compiler/gcc_msp430_4.9.14r1_167/bin/../lib/gcc/msp430-elf/4.9.1/../../../../msp430-elf/lib/large/crtn.o

.debug_macro
 *(.debug_macro)

/DISCARD/
 *(.note.GNU-stack)
OUTPUT(MSP430_FLASH.out elf32-msp430)
